ARM GAS  /tmp/ccSHVwWu.s 			page 1


   1              		.cpu cortex-m3
   2              		.eabi_attribute 20, 1
   3              		.eabi_attribute 21, 1
   4              		.eabi_attribute 23, 3
   5              		.eabi_attribute 24, 1
   6              		.eabi_attribute 25, 1
   7              		.eabi_attribute 26, 1
   8              		.eabi_attribute 30, 1
   9              		.eabi_attribute 34, 1
  10              		.eabi_attribute 18, 4
  11              		.file	"ds18b20.c"
  12              		.text
  13              	.Ltext0:
  14              		.cfi_sections	.debug_frame
  15              		.section	.text.DS18B20_Mode_OUT_PP,"ax",%progbits
  16              		.align	1
  17              		.arch armv7-m
  18              		.syntax unified
  19              		.thumb
  20              		.thumb_func
  21              		.fpu softvfp
  23              	DS18B20_Mode_OUT_PP:
  24              	.LFB65:
  25              		.file 1 "Src/ds18b20.c"
   1:Src/ds18b20.c **** /**
   2:Src/ds18b20.c ****  ******************************************************************************
   3:Src/ds18b20.c ****  * @file            bsp_ds18b20.c
   4:Src/ds18b20.c ****  * @author
   5:Src/ds18b20.c ****  * @date
   6:Src/ds18b20.c ****  * @version         v1.0
   7:Src/ds18b20.c ****  * @note            DHT11 driver
   8:Src/ds18b20.c ****  ******************************************************************************
   9:Src/ds18b20.c ****  */
  10:Src/ds18b20.c **** 
  11:Src/ds18b20.c **** #include "ds18b20.h"
  12:Src/ds18b20.c **** 
  13:Src/ds18b20.c **** /**
  14:Src/ds18b20.c ****  * @brief DS18B20 ËæìÂá∫Ê®°Âºè
  15:Src/ds18b20.c ****  */
  16:Src/ds18b20.c **** static void DS18B20_Mode_OUT_PP(void) {
  26              		.loc 1 16 39 view -0
  27              		.cfi_startproc
  28              		@ args = 0, pretend = 0, frame = 16
  29              		@ frame_needed = 0, uses_anonymous_args = 0
  30 0000 00B5     		push	{lr}
  31              	.LCFI0:
  32              		.cfi_def_cfa_offset 4
  33              		.cfi_offset 14, -4
  34 0002 85B0     		sub	sp, sp, #20
  35              	.LCFI1:
  36              		.cfi_def_cfa_offset 24
  17:Src/ds18b20.c ****   GPIO_InitTypeDef GPIO_InitStruct;
  37              		.loc 1 17 3 view .LVU1
  18:Src/ds18b20.c **** 
  19:Src/ds18b20.c ****   GPIO_InitStruct.Pin = BSP_DS18B20_PIN;
  38              		.loc 1 19 3 view .LVU2
  39              		.loc 1 19 23 is_stmt 0 view .LVU3
ARM GAS  /tmp/ccSHVwWu.s 			page 2


  40 0004 4023     		movs	r3, #64
  41 0006 0093     		str	r3, [sp]
  20:Src/ds18b20.c ****   GPIO_InitStruct.Mode = GPIO_MODE_OUTPUT_PP;
  42              		.loc 1 20 3 is_stmt 1 view .LVU4
  43              		.loc 1 20 24 is_stmt 0 view .LVU5
  44 0008 0123     		movs	r3, #1
  45 000a 0193     		str	r3, [sp, #4]
  21:Src/ds18b20.c ****   GPIO_InitStruct.Speed = GPIO_SPEED_FREQ_HIGH;
  46              		.loc 1 21 3 is_stmt 1 view .LVU6
  47              		.loc 1 21 25 is_stmt 0 view .LVU7
  48 000c 0323     		movs	r3, #3
  49 000e 0393     		str	r3, [sp, #12]
  22:Src/ds18b20.c **** 
  23:Src/ds18b20.c ****   HAL_GPIO_Init(BSP_DS18B20_PORT, &GPIO_InitStruct);
  50              		.loc 1 23 3 is_stmt 1 view .LVU8
  51 0010 6946     		mov	r1, sp
  52 0012 0348     		ldr	r0, .L3
  53 0014 FFF7FEFF 		bl	HAL_GPIO_Init
  54              	.LVL0:
  24:Src/ds18b20.c **** }
  55              		.loc 1 24 1 is_stmt 0 view .LVU9
  56 0018 05B0     		add	sp, sp, #20
  57              	.LCFI2:
  58              		.cfi_def_cfa_offset 4
  59              		@ sp needed
  60 001a 5DF804FB 		ldr	pc, [sp], #4
  61              	.L4:
  62 001e 00BF     		.align	2
  63              	.L3:
  64 0020 00080140 		.word	1073809408
  65              		.cfi_endproc
  66              	.LFE65:
  68              		.section	.text.DS18B20_Mode_IN_NP,"ax",%progbits
  69              		.align	1
  70              		.syntax unified
  71              		.thumb
  72              		.thumb_func
  73              		.fpu softvfp
  75              	DS18B20_Mode_IN_NP:
  76              	.LFB66:
  25:Src/ds18b20.c **** 
  26:Src/ds18b20.c **** /**
  27:Src/ds18b20.c ****  * @brief DS18B20 ËæìÂÖ•Ê®°Âºè
  28:Src/ds18b20.c ****  */
  29:Src/ds18b20.c **** static void DS18B20_Mode_IN_NP(void) {
  77              		.loc 1 29 38 is_stmt 1 view -0
  78              		.cfi_startproc
  79              		@ args = 0, pretend = 0, frame = 16
  80              		@ frame_needed = 0, uses_anonymous_args = 0
  81 0000 00B5     		push	{lr}
  82              	.LCFI3:
  83              		.cfi_def_cfa_offset 4
  84              		.cfi_offset 14, -4
  85 0002 85B0     		sub	sp, sp, #20
  86              	.LCFI4:
  87              		.cfi_def_cfa_offset 24
  30:Src/ds18b20.c ****   GPIO_InitTypeDef GPIO_InitStruct;
ARM GAS  /tmp/ccSHVwWu.s 			page 3


  88              		.loc 1 30 3 view .LVU11
  31:Src/ds18b20.c **** 
  32:Src/ds18b20.c ****   GPIO_InitStruct.Pin = BSP_DS18B20_PIN;
  89              		.loc 1 32 3 view .LVU12
  90              		.loc 1 32 23 is_stmt 0 view .LVU13
  91 0004 4023     		movs	r3, #64
  92 0006 0093     		str	r3, [sp]
  33:Src/ds18b20.c ****   GPIO_InitStruct.Mode = GPIO_MODE_INPUT;
  93              		.loc 1 33 3 is_stmt 1 view .LVU14
  94              		.loc 1 33 24 is_stmt 0 view .LVU15
  95 0008 0023     		movs	r3, #0
  96 000a 0193     		str	r3, [sp, #4]
  34:Src/ds18b20.c ****   GPIO_InitStruct.Pull = GPIO_NOPULL;
  97              		.loc 1 34 3 is_stmt 1 view .LVU16
  98              		.loc 1 34 24 is_stmt 0 view .LVU17
  99 000c 0293     		str	r3, [sp, #8]
  35:Src/ds18b20.c **** 
  36:Src/ds18b20.c ****   HAL_GPIO_Init(BSP_DS18B20_PORT, &GPIO_InitStruct);
 100              		.loc 1 36 3 is_stmt 1 view .LVU18
 101 000e 6946     		mov	r1, sp
 102 0010 0248     		ldr	r0, .L7
 103 0012 FFF7FEFF 		bl	HAL_GPIO_Init
 104              	.LVL1:
  37:Src/ds18b20.c **** }
 105              		.loc 1 37 1 is_stmt 0 view .LVU19
 106 0016 05B0     		add	sp, sp, #20
 107              	.LCFI5:
 108              		.cfi_def_cfa_offset 4
 109              		@ sp needed
 110 0018 5DF804FB 		ldr	pc, [sp], #4
 111              	.L8:
 112              		.align	2
 113              	.L7:
 114 001c 00080140 		.word	1073809408
 115              		.cfi_endproc
 116              	.LFE66:
 118              		.section	.text.DS18B20_Reset,"ax",%progbits
 119              		.align	1
 120              		.syntax unified
 121              		.thumb
 122              		.thumb_func
 123              		.fpu softvfp
 125              	DS18B20_Reset:
 126              	.LFB67:
  38:Src/ds18b20.c **** 
  39:Src/ds18b20.c **** /**
  40:Src/ds18b20.c ****  * @brief ‰∏ªÊú∫Áªô‰ªéÊú∫ÂèëÈÄÅÂ§ç‰ΩçËÑâÂÜ≤
  41:Src/ds18b20.c ****  */
  42:Src/ds18b20.c **** static void DS18B20_Reset(void) {
 127              		.loc 1 42 33 is_stmt 1 view -0
 128              		.cfi_startproc
 129              		@ args = 0, pretend = 0, frame = 0
 130              		@ frame_needed = 0, uses_anonymous_args = 0
 131 0000 10B5     		push	{r4, lr}
 132              	.LCFI6:
 133              		.cfi_def_cfa_offset 8
 134              		.cfi_offset 4, -8
ARM GAS  /tmp/ccSHVwWu.s 			page 4


 135              		.cfi_offset 14, -4
  43:Src/ds18b20.c ****   DS18B20_Mode_OUT_PP(); // ‰∏ªÊú∫ËæìÂá∫
 136              		.loc 1 43 3 view .LVU21
 137 0002 FFF7FEFF 		bl	DS18B20_Mode_OUT_PP
 138              	.LVL2:
  44:Src/ds18b20.c **** 
  45:Src/ds18b20.c ****   DS18B20_OUT_0; // ‰∏ªÊú∫Ëá≥Â∞ë‰∫ßÁîü 480us ÁöÑ‰ΩéÁîµÂπ≥Â§ç‰Ωç‰ø°Âè∑
 139              		.loc 1 45 3 view .LVU22
 140 0006 094C     		ldr	r4, .L11
 141 0008 0022     		movs	r2, #0
 142 000a 4021     		movs	r1, #64
 143 000c 2046     		mov	r0, r4
 144 000e FFF7FEFF 		bl	HAL_GPIO_WritePin
 145              	.LVL3:
  46:Src/ds18b20.c ****   bsp_delay_us(750);
 146              		.loc 1 46 3 view .LVU23
 147 0012 40F2EE20 		movw	r0, #750
 148 0016 FFF7FEFF 		bl	bsp_delay_us
 149              	.LVL4:
  47:Src/ds18b20.c **** 
  48:Src/ds18b20.c ****   DS18B20_OUT_1; // ‰∏ªÊú∫Âú®‰∫ßÁîüÂ§ç‰Ωç‰ø°Âè∑ÂêéÔºåÈúÄÂ∞ÜÊÄªÁ∫øÊãâÈ´ò
 150              		.loc 1 48 3 view .LVU24
 151 001a 0122     		movs	r2, #1
 152 001c 4021     		movs	r1, #64
 153 001e 2046     		mov	r0, r4
 154 0020 FFF7FEFF 		bl	HAL_GPIO_WritePin
 155              	.LVL5:
  49:Src/ds18b20.c **** 
  50:Src/ds18b20.c ****   // ‰ªéÊú∫Êé•Êî∂Âà∞‰∏ªÊú∫ÁöÑÂ§ç‰Ωç‰ø°Âè∑ÂêéÔºå‰ºöÂú® 15 ~ 60 us ÂêéÁªô‰∏ªÊú∫Âèë‰∏Ä‰∏™Â≠òÂú®ËÑâÂÜ≤
  51:Src/ds18b20.c ****   bsp_delay_us(15);
 156              		.loc 1 51 3 view .LVU25
 157 0024 0F20     		movs	r0, #15
 158 0026 FFF7FEFF 		bl	bsp_delay_us
 159              	.LVL6:
  52:Src/ds18b20.c **** }
 160              		.loc 1 52 1 is_stmt 0 view .LVU26
 161 002a 10BD     		pop	{r4, pc}
 162              	.L12:
 163              		.align	2
 164              	.L11:
 165 002c 00080140 		.word	1073809408
 166              		.cfi_endproc
 167              	.LFE67:
 169              		.section	.text.DS18B20_WriteByte,"ax",%progbits
 170              		.align	1
 171              		.syntax unified
 172              		.thumb
 173              		.thumb_func
 174              		.fpu softvfp
 176              	DS18B20_WriteByte:
 177              	.LVL7:
 178              	.LFB72:
  53:Src/ds18b20.c **** 
  54:Src/ds18b20.c **** /**
  55:Src/ds18b20.c ****  * @brief  Ê£ÄÊµã‰ªéÊú∫Áªô‰∏ªÊú∫ËøîÂõûÁöÑÂ≠òÂú®ËÑâÂÜ≤
  56:Src/ds18b20.c ****  * @return 0ÔºöÊàêÂäü		1ÔºöÂ§±Ë¥•
  57:Src/ds18b20.c ****  */
ARM GAS  /tmp/ccSHVwWu.s 			page 5


  58:Src/ds18b20.c **** static uint8_t DS18B20_Presence(void) {
  59:Src/ds18b20.c ****   uint8_t pulse_time = 0;
  60:Src/ds18b20.c **** 
  61:Src/ds18b20.c ****   DS18B20_Mode_IN_NP(); // ‰∏ªÊú∫ËÆæ‰∏∫ËæìÂÖ•
  62:Src/ds18b20.c **** 
  63:Src/ds18b20.c ****   // Á≠âÂæÖÂ≠òÂú®ËÑâÂÜ≤ÁöÑÂà∞Êù•ÔºåÂ≠òÂú®ËÑâÂÜ≤‰∏∫‰∏Ä‰∏™ 60 ~ 240 us ÁöÑ‰ΩéÁîµÂπ≥‰ø°Âè∑
  64:Src/ds18b20.c ****   // Â¶ÇÊûúÂ≠òÂú®ËÑâÂÜ≤Ê≤°ÊúâÊù•ÂàôÂÅöË∂ÖÊó∂Â§ÑÁêÜÔºå‰ªéÊú∫Êé•Êî∂Âà∞‰∏ªÊú∫ÁöÑÂ§ç‰Ωç‰ø°Âè∑ÂêéÔºå‰ºöÂ
  65:Src/ds18b20.c ****   // ÂêéÁªô‰∏ªÊú∫Âèë‰∏Ä‰∏™Â≠òÂú®ËÑâÂÜ≤
  66:Src/ds18b20.c **** 
  67:Src/ds18b20.c ****   while (DS18B20_IN && (pulse_time < 100)) // Á≠âÂæÖ‰ΩéÁîµÂπ≥ÂìçÂ∫îËÑâÂÜ≤
  68:Src/ds18b20.c ****   {
  69:Src/ds18b20.c ****     pulse_time++;
  70:Src/ds18b20.c ****     bsp_delay_us(1);
  71:Src/ds18b20.c ****   }
  72:Src/ds18b20.c ****   // ÁªèËøá 100 us ÂêéÔºåÂ≠òÂú®ËÑâÂÜ≤ÈÉΩËøòÊ≤°ÊúâÂà∞Êù•
  73:Src/ds18b20.c ****   if (pulse_time >= 100) {
  74:Src/ds18b20.c ****     return 1;
  75:Src/ds18b20.c ****   } else {
  76:Src/ds18b20.c ****     pulse_time = 0;
  77:Src/ds18b20.c ****   }
  78:Src/ds18b20.c **** 
  79:Src/ds18b20.c ****   // ÂìçÂ∫îËÑâÂÜ≤Ôºà‰ΩéÁîµÂπ≥ÔºâÂà∞Êù•Ôºå‰∏îÂ≠òÂú®ÁöÑÊó∂Èó¥‰∏çËÉΩË∂ÖËøá 240 us
  80:Src/ds18b20.c ****   while (!(DS18B20_IN) && pulse_time < 240) {
  81:Src/ds18b20.c ****     pulse_time++;
  82:Src/ds18b20.c ****     bsp_delay_us(1);
  83:Src/ds18b20.c ****   }
  84:Src/ds18b20.c ****   if (pulse_time >= 240) {
  85:Src/ds18b20.c ****     return 1;
  86:Src/ds18b20.c ****   } else {
  87:Src/ds18b20.c ****     return 0;
  88:Src/ds18b20.c ****   }
  89:Src/ds18b20.c **** }
  90:Src/ds18b20.c **** 
  91:Src/ds18b20.c **** /**
  92:Src/ds18b20.c ****  * @brief  DS18B20 ÂàùÂßãÂåñÂáΩÊï∞
  93:Src/ds18b20.c ****  * @reurn  0ÔºöÊàêÂäü		1ÔºöÂ§±Ë¥•
  94:Src/ds18b20.c ****  */
  95:Src/ds18b20.c **** uint8_t DS18B20_Init(void) {
  96:Src/ds18b20.c ****   DS18B20_Mode_OUT_PP();
  97:Src/ds18b20.c ****   DS18B20_OUT_1;
  98:Src/ds18b20.c **** 
  99:Src/ds18b20.c ****   DS18B20_Reset();
 100:Src/ds18b20.c ****   return DS18B20_Presence();
 101:Src/ds18b20.c **** }
 102:Src/ds18b20.c **** 
 103:Src/ds18b20.c **** /**
 104:Src/ds18b20.c ****  * @brief ‰ªéDS18B20ËØªÂèñ‰∏Ä‰∏™bit
 105:Src/ds18b20.c ****  */
 106:Src/ds18b20.c **** static uint8_t DS18B20_ReadBit(void) {
 107:Src/ds18b20.c ****   uint8_t dat;
 108:Src/ds18b20.c **** 
 109:Src/ds18b20.c ****   DS18B20_Mode_OUT_PP(); // ËØª 0 ÂíåËØª 1 ÁöÑÊó∂Èó¥Ëá≥Â∞ëË¶ÅÂ§ß‰∫é 60 us
 110:Src/ds18b20.c **** 
 111:Src/ds18b20.c ****   DS18B20_OUT_0; // ËØªÊó∂Èó¥ÁöÑËµ∑ÂßãÔºöÂøÖÈ°ªÁî±‰∏ªÊú∫‰∫ßÁîü > 1us < 15us ÁöÑ‰ΩéÁîµÂπ≥‰ø°Âè∑
 112:Src/ds18b20.c **** 
 113:Src/ds18b20.c ****   // Ëøô‰∏™Êó∂Èó¥ÈùûÂ∏∏ÈáçË¶ÅÔºåËÆæÁΩÆ‰∏∫ < 15ÔºåÈúÄË¶ÅÂ§öÊ¨°Â∞ùËØïÔºõÂ¶ÇÊûúËÆæÁΩÆ‰∏çÂêàÁêÜÔºåÊï∞Êç
 114:Src/ds18b20.c ****   // ÂèÇÊï∞Âª∫ËÆÆËÆæ‰∏∫ 10 11 12ÔºåÂÖ∑‰ΩìÂÄºË¶ÅÊ†πÊçÆÂª∂Êó∂ÂáΩÊï∞ÁöÑÊâßË°åÊïàÁéáÊµãËØï
ARM GAS  /tmp/ccSHVwWu.s 			page 6


 115:Src/ds18b20.c ****   bsp_delay_us(13);
 116:Src/ds18b20.c **** 
 117:Src/ds18b20.c ****   DS18B20_Mode_IN_NP(); // ËÆæÁΩÆÊàêËæìÂÖ•ÔºåÈáäÊîæÊÄªÁ∫øÔºåÁî±Â§ñÈÉ®‰∏äÊãâÁîµÈòªÂ∞ÜÊÄªÁ∫øÊãâÈ´ò
 118:Src/ds18b20.c **** 
 119:Src/ds18b20.c ****   if (DS18B20_IN == 1) {
 120:Src/ds18b20.c ****     dat = 1;
 121:Src/ds18b20.c ****   } else {
 122:Src/ds18b20.c ****     dat = 0;
 123:Src/ds18b20.c ****   }
 124:Src/ds18b20.c **** 
 125:Src/ds18b20.c ****   bsp_delay_us(45); // Ëøô‰∏™Âª∂Êó∂ÂèÇÊï∞ÂèÇËÄÉÊó∂Â∫èÂõæ
 126:Src/ds18b20.c **** 
 127:Src/ds18b20.c ****   return dat;
 128:Src/ds18b20.c **** }
 129:Src/ds18b20.c **** 
 130:Src/ds18b20.c **** /**
 131:Src/ds18b20.c ****  * @brief ‰ªé DS18B20 ËØª‰∏Ä‰∏™Â≠óËäÇÔºå‰Ωé‰ΩçÂÖàË°å
 132:Src/ds18b20.c ****  */
 133:Src/ds18b20.c **** static uint8_t DS18B20_ReadByte(void) {
 134:Src/ds18b20.c ****   uint8_t i, j, dat = 0;
 135:Src/ds18b20.c **** 
 136:Src/ds18b20.c ****   for (i = 0; i < 8; i++) {
 137:Src/ds18b20.c ****     j = DS18B20_ReadBit();
 138:Src/ds18b20.c ****     dat = (dat) | (j << i);
 139:Src/ds18b20.c ****   }
 140:Src/ds18b20.c **** 
 141:Src/ds18b20.c ****   return dat;
 142:Src/ds18b20.c **** }
 143:Src/ds18b20.c **** 
 144:Src/ds18b20.c **** /**
 145:Src/ds18b20.c ****  * @brief ÂÜô‰∏Ä‰∏™Â≠óËäÇÂà∞ DS18B20Ôºå‰Ωé‰ΩçÂÖàË°å
 146:Src/ds18b20.c ****  */
 147:Src/ds18b20.c **** static void DS18B20_WriteByte(uint8_t dat) {
 179              		.loc 1 147 44 is_stmt 1 view -0
 180              		.cfi_startproc
 181              		@ args = 0, pretend = 0, frame = 0
 182              		@ frame_needed = 0, uses_anonymous_args = 0
 183              		.loc 1 147 44 is_stmt 0 view .LVU28
 184 0000 70B5     		push	{r4, r5, r6, lr}
 185              	.LCFI7:
 186              		.cfi_def_cfa_offset 16
 187              		.cfi_offset 4, -16
 188              		.cfi_offset 5, -12
 189              		.cfi_offset 6, -8
 190              		.cfi_offset 14, -4
 191 0002 0546     		mov	r5, r0
 148:Src/ds18b20.c ****   uint8_t i, testb;
 192              		.loc 1 148 3 is_stmt 1 view .LVU29
 149:Src/ds18b20.c ****   DS18B20_Mode_OUT_PP();
 193              		.loc 1 149 3 view .LVU30
 194 0004 FFF7FEFF 		bl	DS18B20_Mode_OUT_PP
 195              	.LVL8:
 150:Src/ds18b20.c **** 
 151:Src/ds18b20.c ****   for (i = 0; i < 8; i++) {
 196              		.loc 1 151 3 view .LVU31
 197              		.loc 1 151 10 is_stmt 0 view .LVU32
 198 0008 0024     		movs	r4, #0
ARM GAS  /tmp/ccSHVwWu.s 			page 7


 199              		.loc 1 151 3 view .LVU33
 200 000a 12E0     		b	.L14
 201              	.LVL9:
 202              	.L15:
 203              	.LBB2:
 152:Src/ds18b20.c ****     testb = dat & 0x01;
 153:Src/ds18b20.c **** 
 154:Src/ds18b20.c ****     dat = dat >> 1;
 155:Src/ds18b20.c **** 
 156:Src/ds18b20.c ****     // ÂÜô 0 ÂíåÂÜô 1 ÁöÑÊó∂Èó¥Ëá≥Â∞ëË¶ÅÂ§ß‰∫é60us
 157:Src/ds18b20.c **** 
 158:Src/ds18b20.c ****     if (testb) // ÂΩìÂâç‰ΩçÂÜô 1
 159:Src/ds18b20.c ****     {
 160:Src/ds18b20.c ****       DS18B20_OUT_0;
 161:Src/ds18b20.c **** 
 162:Src/ds18b20.c ****       bsp_delay_us(5); // Êãâ‰ΩéÂèëÈÄÅÂÜôÊó∂ÊÆµ‰ø°Âè∑
 163:Src/ds18b20.c **** 
 164:Src/ds18b20.c ****       DS18B20_OUT_1; // ËØªÂèñÁîµÂπ≥Êó∂Èó¥‰øùÊåÅÈ´òÁîµÂπ≥
 165:Src/ds18b20.c ****       bsp_delay_us(65);
 166:Src/ds18b20.c ****     } else // ÂΩìÂâç‰ΩçÂÜô 0
 167:Src/ds18b20.c ****     {
 168:Src/ds18b20.c ****       DS18B20_OUT_0;    // Êãâ‰ΩéÂèëÈÄÅÂÜôÊó∂ÊÆµ‰ø°Âè∑
 204              		.loc 1 168 7 is_stmt 1 view .LVU34
 205 000c 164E     		ldr	r6, .L20
 206 000e 0022     		movs	r2, #0
 207 0010 4021     		movs	r1, #64
 208 0012 3046     		mov	r0, r6
 209 0014 FFF7FEFF 		bl	HAL_GPIO_WritePin
 210              	.LVL10:
 169:Src/ds18b20.c ****       bsp_delay_us(70); // ËØªÂèñÁîµÂπ≥Êó∂Èó¥‰øùÊåÅ‰ΩéÁîµÂπ≥
 211              		.loc 1 169 7 view .LVU35
 212 0018 4620     		movs	r0, #70
 213 001a FFF7FEFF 		bl	bsp_delay_us
 214              	.LVL11:
 170:Src/ds18b20.c **** 
 171:Src/ds18b20.c ****       DS18B20_OUT_1;
 215              		.loc 1 171 7 view .LVU36
 216 001e 0122     		movs	r2, #1
 217 0020 4021     		movs	r1, #64
 218 0022 3046     		mov	r0, r6
 219 0024 FFF7FEFF 		bl	HAL_GPIO_WritePin
 220              	.LVL12:
 172:Src/ds18b20.c ****       bsp_delay_us(2); // ÊÅ¢Â§çÊó∂Èó¥
 221              		.loc 1 172 7 view .LVU37
 222 0028 0220     		movs	r0, #2
 223 002a FFF7FEFF 		bl	bsp_delay_us
 224              	.LVL13:
 225              	.L16:
 226              	.LBE2:
 151:Src/ds18b20.c ****     testb = dat & 0x01;
 227              		.loc 1 151 23 is_stmt 0 discriminator 2 view .LVU38
 228 002e 0134     		adds	r4, r4, #1
 229              	.LVL14:
 151:Src/ds18b20.c ****     testb = dat & 0x01;
 230              		.loc 1 151 23 discriminator 2 view .LVU39
 231 0030 E4B2     		uxtb	r4, r4
 232              	.LVL15:
ARM GAS  /tmp/ccSHVwWu.s 			page 8


 233              	.L14:
 151:Src/ds18b20.c ****     testb = dat & 0x01;
 234              		.loc 1 151 3 discriminator 1 view .LVU40
 235 0032 072C     		cmp	r4, #7
 236 0034 16D8     		bhi	.L19
 152:Src/ds18b20.c **** 
 237              		.loc 1 152 5 is_stmt 1 view .LVU41
 152:Src/ds18b20.c **** 
 238              		.loc 1 152 11 is_stmt 0 view .LVU42
 239 0036 05F00103 		and	r3, r5, #1
 240              	.LVL16:
 154:Src/ds18b20.c **** 
 241              		.loc 1 154 5 is_stmt 1 view .LVU43
 154:Src/ds18b20.c **** 
 242              		.loc 1 154 9 is_stmt 0 view .LVU44
 243 003a 6D08     		lsrs	r5, r5, #1
 244              	.LVL17:
 158:Src/ds18b20.c ****     {
 245              		.loc 1 158 5 is_stmt 1 view .LVU45
 158:Src/ds18b20.c ****     {
 246              		.loc 1 158 8 is_stmt 0 view .LVU46
 247 003c 002B     		cmp	r3, #0
 248 003e E5D0     		beq	.L15
 249              	.LBB3:
 160:Src/ds18b20.c **** 
 250              		.loc 1 160 7 is_stmt 1 view .LVU47
 251 0040 094E     		ldr	r6, .L20
 252 0042 0022     		movs	r2, #0
 253 0044 4021     		movs	r1, #64
 254 0046 3046     		mov	r0, r6
 255 0048 FFF7FEFF 		bl	HAL_GPIO_WritePin
 256              	.LVL18:
 162:Src/ds18b20.c **** 
 257              		.loc 1 162 7 view .LVU48
 258 004c 0520     		movs	r0, #5
 259 004e FFF7FEFF 		bl	bsp_delay_us
 260              	.LVL19:
 164:Src/ds18b20.c ****       bsp_delay_us(65);
 261              		.loc 1 164 7 view .LVU49
 262 0052 0122     		movs	r2, #1
 263 0054 4021     		movs	r1, #64
 264 0056 3046     		mov	r0, r6
 265 0058 FFF7FEFF 		bl	HAL_GPIO_WritePin
 266              	.LVL20:
 165:Src/ds18b20.c ****     } else // ÂΩìÂâç‰ΩçÂÜô 0
 267              		.loc 1 165 7 view .LVU50
 268 005c 4120     		movs	r0, #65
 269 005e FFF7FEFF 		bl	bsp_delay_us
 270              	.LVL21:
 271              	.LBE3:
 272 0062 E4E7     		b	.L16
 273              	.L19:
 173:Src/ds18b20.c ****     }
 174:Src/ds18b20.c ****   }
 175:Src/ds18b20.c **** }
 274              		.loc 1 175 1 is_stmt 0 view .LVU51
 275 0064 70BD     		pop	{r4, r5, r6, pc}
ARM GAS  /tmp/ccSHVwWu.s 			page 9


 276              	.LVL22:
 277              	.L21:
 278              		.loc 1 175 1 view .LVU52
 279 0066 00BF     		.align	2
 280              	.L20:
 281 0068 00080140 		.word	1073809408
 282              		.cfi_endproc
 283              	.LFE72:
 285              		.section	.text.DS18B20_Presence,"ax",%progbits
 286              		.align	1
 287              		.syntax unified
 288              		.thumb
 289              		.thumb_func
 290              		.fpu softvfp
 292              	DS18B20_Presence:
 293              	.LFB68:
  58:Src/ds18b20.c ****   uint8_t pulse_time = 0;
 294              		.loc 1 58 39 is_stmt 1 view -0
 295              		.cfi_startproc
 296              		@ args = 0, pretend = 0, frame = 0
 297              		@ frame_needed = 0, uses_anonymous_args = 0
 298 0000 10B5     		push	{r4, lr}
 299              	.LCFI8:
 300              		.cfi_def_cfa_offset 8
 301              		.cfi_offset 4, -8
 302              		.cfi_offset 14, -4
  59:Src/ds18b20.c **** 
 303              		.loc 1 59 3 view .LVU54
 304              	.LVL23:
  61:Src/ds18b20.c **** 
 305              		.loc 1 61 3 view .LVU55
 306 0002 FFF7FEFF 		bl	DS18B20_Mode_IN_NP
 307              	.LVL24:
  67:Src/ds18b20.c ****   {
 308              		.loc 1 67 3 view .LVU56
  59:Src/ds18b20.c **** 
 309              		.loc 1 59 11 is_stmt 0 view .LVU57
 310 0006 0024     		movs	r4, #0
 311              	.LVL25:
 312              	.L23:
  67:Src/ds18b20.c ****   {
 313              		.loc 1 67 10 view .LVU58
 314 0008 4021     		movs	r1, #64
 315 000a 1248     		ldr	r0, .L33
 316 000c FFF7FEFF 		bl	HAL_GPIO_ReadPin
 317              	.LVL26:
  67:Src/ds18b20.c ****   {
 318              		.loc 1 67 9 view .LVU59
 319 0010 38B1     		cbz	r0, .L24
  67:Src/ds18b20.c ****   {
 320              		.loc 1 67 21 discriminator 1 view .LVU60
 321 0012 632C     		cmp	r4, #99
 322 0014 05D8     		bhi	.L24
 323              	.LBB4:
  69:Src/ds18b20.c ****     bsp_delay_us(1);
 324              		.loc 1 69 5 is_stmt 1 view .LVU61
  69:Src/ds18b20.c ****     bsp_delay_us(1);
ARM GAS  /tmp/ccSHVwWu.s 			page 10


 325              		.loc 1 69 15 is_stmt 0 view .LVU62
 326 0016 0134     		adds	r4, r4, #1
 327              	.LVL27:
  69:Src/ds18b20.c ****     bsp_delay_us(1);
 328              		.loc 1 69 15 view .LVU63
 329 0018 E4B2     		uxtb	r4, r4
 330              	.LVL28:
  70:Src/ds18b20.c ****   }
 331              		.loc 1 70 5 is_stmt 1 view .LVU64
 332 001a 0120     		movs	r0, #1
 333 001c FFF7FEFF 		bl	bsp_delay_us
 334              	.LVL29:
 335 0020 F2E7     		b	.L23
 336              	.L24:
  70:Src/ds18b20.c ****   }
 337              		.loc 1 70 5 is_stmt 0 view .LVU65
 338              	.LBE4:
  73:Src/ds18b20.c ****     return 1;
 339              		.loc 1 73 3 is_stmt 1 view .LVU66
  73:Src/ds18b20.c ****     return 1;
 340              		.loc 1 73 6 is_stmt 0 view .LVU67
 341 0022 632C     		cmp	r4, #99
 342 0024 11D8     		bhi	.L30
  76:Src/ds18b20.c ****   }
 343              		.loc 1 76 16 view .LVU68
 344 0026 0024     		movs	r4, #0
 345              	.LVL30:
 346              	.L27:
  80:Src/ds18b20.c ****     pulse_time++;
 347              		.loc 1 80 12 view .LVU69
 348 0028 4021     		movs	r1, #64
 349 002a 0A48     		ldr	r0, .L33
 350 002c FFF7FEFF 		bl	HAL_GPIO_ReadPin
 351              	.LVL31:
  80:Src/ds18b20.c ****     pulse_time++;
 352              		.loc 1 80 9 view .LVU70
 353 0030 38B9     		cbnz	r0, .L28
  80:Src/ds18b20.c ****     pulse_time++;
 354              		.loc 1 80 24 discriminator 1 view .LVU71
 355 0032 EF2C     		cmp	r4, #239
 356 0034 05D8     		bhi	.L28
 357              	.LBB5:
  81:Src/ds18b20.c ****     bsp_delay_us(1);
 358              		.loc 1 81 5 is_stmt 1 view .LVU72
  81:Src/ds18b20.c ****     bsp_delay_us(1);
 359              		.loc 1 81 15 is_stmt 0 view .LVU73
 360 0036 0134     		adds	r4, r4, #1
 361              	.LVL32:
  81:Src/ds18b20.c ****     bsp_delay_us(1);
 362              		.loc 1 81 15 view .LVU74
 363 0038 E4B2     		uxtb	r4, r4
 364              	.LVL33:
  82:Src/ds18b20.c ****   }
 365              		.loc 1 82 5 is_stmt 1 view .LVU75
 366 003a 0120     		movs	r0, #1
 367 003c FFF7FEFF 		bl	bsp_delay_us
 368              	.LVL34:
ARM GAS  /tmp/ccSHVwWu.s 			page 11


 369 0040 F2E7     		b	.L27
 370              	.L28:
  82:Src/ds18b20.c ****   }
 371              		.loc 1 82 5 is_stmt 0 view .LVU76
 372              	.LBE5:
  84:Src/ds18b20.c ****     return 1;
 373              		.loc 1 84 3 is_stmt 1 view .LVU77
  84:Src/ds18b20.c ****     return 1;
 374              		.loc 1 84 6 is_stmt 0 view .LVU78
 375 0042 EF2C     		cmp	r4, #239
 376 0044 03D9     		bls	.L31
  85:Src/ds18b20.c ****   } else {
 377              		.loc 1 85 12 view .LVU79
 378 0046 0120     		movs	r0, #1
 379 0048 00E0     		b	.L26
 380              	.L30:
  74:Src/ds18b20.c ****   } else {
 381              		.loc 1 74 12 view .LVU80
 382 004a 0120     		movs	r0, #1
 383              	.L26:
  89:Src/ds18b20.c **** 
 384              		.loc 1 89 1 view .LVU81
 385 004c 10BD     		pop	{r4, pc}
 386              	.LVL35:
 387              	.L31:
  87:Src/ds18b20.c ****   }
 388              		.loc 1 87 12 view .LVU82
 389 004e 0020     		movs	r0, #0
 390 0050 FCE7     		b	.L26
 391              	.L34:
 392 0052 00BF     		.align	2
 393              	.L33:
 394 0054 00080140 		.word	1073809408
 395              		.cfi_endproc
 396              	.LFE68:
 398              		.section	.text.DS18B20_SkipRom,"ax",%progbits
 399              		.align	1
 400              		.syntax unified
 401              		.thumb
 402              		.thumb_func
 403              		.fpu softvfp
 405              	DS18B20_SkipRom:
 406              	.LFB73:
 176:Src/ds18b20.c **** 
 177:Src/ds18b20.c **** /**
 178:Src/ds18b20.c ****  * @brief  Ë∑≥ËøáÂåπÈÖç DS18B20 ROM
 179:Src/ds18b20.c ****  */
 180:Src/ds18b20.c **** static void DS18B20_SkipRom(void) {
 407              		.loc 1 180 35 is_stmt 1 view -0
 408              		.cfi_startproc
 409              		@ args = 0, pretend = 0, frame = 0
 410              		@ frame_needed = 0, uses_anonymous_args = 0
 411 0000 08B5     		push	{r3, lr}
 412              	.LCFI9:
 413              		.cfi_def_cfa_offset 8
 414              		.cfi_offset 3, -8
 415              		.cfi_offset 14, -4
ARM GAS  /tmp/ccSHVwWu.s 			page 12


 181:Src/ds18b20.c ****   DS18B20_Reset();
 416              		.loc 1 181 3 view .LVU84
 417 0002 FFF7FEFF 		bl	DS18B20_Reset
 418              	.LVL36:
 182:Src/ds18b20.c **** 
 183:Src/ds18b20.c ****   DS18B20_Presence();
 419              		.loc 1 183 3 view .LVU85
 420 0006 FFF7FEFF 		bl	DS18B20_Presence
 421              	.LVL37:
 184:Src/ds18b20.c **** 
 185:Src/ds18b20.c ****   DS18B20_WriteByte(0XCC); /* Ë∑≥Ëøá ROM */
 422              		.loc 1 185 3 view .LVU86
 423 000a CC20     		movs	r0, #204
 424 000c FFF7FEFF 		bl	DS18B20_WriteByte
 425              	.LVL38:
 186:Src/ds18b20.c **** }
 426              		.loc 1 186 1 is_stmt 0 view .LVU87
 427 0010 08BD     		pop	{r3, pc}
 428              		.cfi_endproc
 429              	.LFE73:
 431              		.section	.text.DS18B20_MatchRom,"ax",%progbits
 432              		.align	1
 433              		.syntax unified
 434              		.thumb
 435              		.thumb_func
 436              		.fpu softvfp
 438              	DS18B20_MatchRom:
 439              	.LFB74:
 187:Src/ds18b20.c **** 
 188:Src/ds18b20.c **** /**
 189:Src/ds18b20.c ****  * @brief  ÊâßË°åÂåπÈÖç DS18B20 ROM
 190:Src/ds18b20.c ****  */
 191:Src/ds18b20.c **** static void DS18B20_MatchRom(void) {
 440              		.loc 1 191 36 is_stmt 1 view -0
 441              		.cfi_startproc
 442              		@ args = 0, pretend = 0, frame = 0
 443              		@ frame_needed = 0, uses_anonymous_args = 0
 444 0000 08B5     		push	{r3, lr}
 445              	.LCFI10:
 446              		.cfi_def_cfa_offset 8
 447              		.cfi_offset 3, -8
 448              		.cfi_offset 14, -4
 192:Src/ds18b20.c ****   DS18B20_Reset();
 449              		.loc 1 192 3 view .LVU89
 450 0002 FFF7FEFF 		bl	DS18B20_Reset
 451              	.LVL39:
 193:Src/ds18b20.c **** 
 194:Src/ds18b20.c ****   DS18B20_Presence();
 452              		.loc 1 194 3 view .LVU90
 453 0006 FFF7FEFF 		bl	DS18B20_Presence
 454              	.LVL40:
 195:Src/ds18b20.c **** 
 196:Src/ds18b20.c ****   DS18B20_WriteByte(0X55); /* ÂåπÈÖç ROM */
 455              		.loc 1 196 3 view .LVU91
 456 000a 5520     		movs	r0, #85
 457 000c FFF7FEFF 		bl	DS18B20_WriteByte
 458              	.LVL41:
ARM GAS  /tmp/ccSHVwWu.s 			page 13


 197:Src/ds18b20.c **** }
 459              		.loc 1 197 1 is_stmt 0 view .LVU92
 460 0010 08BD     		pop	{r3, pc}
 461              		.cfi_endproc
 462              	.LFE74:
 464              		.section	.text.DS18B20_ReadBit,"ax",%progbits
 465              		.align	1
 466              		.syntax unified
 467              		.thumb
 468              		.thumb_func
 469              		.fpu softvfp
 471              	DS18B20_ReadBit:
 472              	.LFB70:
 106:Src/ds18b20.c ****   uint8_t dat;
 473              		.loc 1 106 38 is_stmt 1 view -0
 474              		.cfi_startproc
 475              		@ args = 0, pretend = 0, frame = 0
 476              		@ frame_needed = 0, uses_anonymous_args = 0
 477 0000 10B5     		push	{r4, lr}
 478              	.LCFI11:
 479              		.cfi_def_cfa_offset 8
 480              		.cfi_offset 4, -8
 481              		.cfi_offset 14, -4
 107:Src/ds18b20.c **** 
 482              		.loc 1 107 3 view .LVU94
 109:Src/ds18b20.c **** 
 483              		.loc 1 109 3 view .LVU95
 484 0002 FFF7FEFF 		bl	DS18B20_Mode_OUT_PP
 485              	.LVL42:
 111:Src/ds18b20.c **** 
 486              		.loc 1 111 3 view .LVU96
 487 0006 0C4C     		ldr	r4, .L43
 488 0008 0022     		movs	r2, #0
 489 000a 4021     		movs	r1, #64
 490 000c 2046     		mov	r0, r4
 491 000e FFF7FEFF 		bl	HAL_GPIO_WritePin
 492              	.LVL43:
 115:Src/ds18b20.c **** 
 493              		.loc 1 115 3 view .LVU97
 494 0012 0D20     		movs	r0, #13
 495 0014 FFF7FEFF 		bl	bsp_delay_us
 496              	.LVL44:
 117:Src/ds18b20.c **** 
 497              		.loc 1 117 3 view .LVU98
 498 0018 FFF7FEFF 		bl	DS18B20_Mode_IN_NP
 499              	.LVL45:
 119:Src/ds18b20.c ****     dat = 1;
 500              		.loc 1 119 3 view .LVU99
 119:Src/ds18b20.c ****     dat = 1;
 501              		.loc 1 119 7 is_stmt 0 view .LVU100
 502 001c 4021     		movs	r1, #64
 503 001e 2046     		mov	r0, r4
 504 0020 FFF7FEFF 		bl	HAL_GPIO_ReadPin
 505              	.LVL46:
 506 0024 0446     		mov	r4, r0
 119:Src/ds18b20.c ****     dat = 1;
 507              		.loc 1 119 6 view .LVU101
ARM GAS  /tmp/ccSHVwWu.s 			page 14


 508 0026 0128     		cmp	r0, #1
 509 0028 00D0     		beq	.L40
 122:Src/ds18b20.c ****   }
 510              		.loc 1 122 9 view .LVU102
 511 002a 0024     		movs	r4, #0
 512              	.L40:
 513              	.LVL47:
 125:Src/ds18b20.c **** 
 514              		.loc 1 125 3 is_stmt 1 view .LVU103
 515 002c 2D20     		movs	r0, #45
 516 002e FFF7FEFF 		bl	bsp_delay_us
 517              	.LVL48:
 127:Src/ds18b20.c **** }
 518              		.loc 1 127 3 view .LVU104
 128:Src/ds18b20.c **** 
 519              		.loc 1 128 1 is_stmt 0 view .LVU105
 520 0032 2046     		mov	r0, r4
 521 0034 10BD     		pop	{r4, pc}
 522              	.LVL49:
 523              	.L44:
 128:Src/ds18b20.c **** 
 524              		.loc 1 128 1 view .LVU106
 525 0036 00BF     		.align	2
 526              	.L43:
 527 0038 00080140 		.word	1073809408
 528              		.cfi_endproc
 529              	.LFE70:
 531              		.section	.text.DS18B20_ReadByte,"ax",%progbits
 532              		.align	1
 533              		.syntax unified
 534              		.thumb
 535              		.thumb_func
 536              		.fpu softvfp
 538              	DS18B20_ReadByte:
 539              	.LFB71:
 133:Src/ds18b20.c ****   uint8_t i, j, dat = 0;
 540              		.loc 1 133 39 is_stmt 1 view -0
 541              		.cfi_startproc
 542              		@ args = 0, pretend = 0, frame = 0
 543              		@ frame_needed = 0, uses_anonymous_args = 0
 544 0000 38B5     		push	{r3, r4, r5, lr}
 545              	.LCFI12:
 546              		.cfi_def_cfa_offset 16
 547              		.cfi_offset 3, -16
 548              		.cfi_offset 4, -12
 549              		.cfi_offset 5, -8
 550              		.cfi_offset 14, -4
 134:Src/ds18b20.c **** 
 551              		.loc 1 134 3 view .LVU108
 552              	.LVL50:
 136:Src/ds18b20.c ****     j = DS18B20_ReadBit();
 553              		.loc 1 136 3 view .LVU109
 134:Src/ds18b20.c **** 
 554              		.loc 1 134 17 is_stmt 0 view .LVU110
 555 0002 0025     		movs	r5, #0
 136:Src/ds18b20.c ****     j = DS18B20_ReadBit();
 556              		.loc 1 136 10 view .LVU111
ARM GAS  /tmp/ccSHVwWu.s 			page 15


 557 0004 2C46     		mov	r4, r5
 136:Src/ds18b20.c ****     j = DS18B20_ReadBit();
 558              		.loc 1 136 3 view .LVU112
 559 0006 06E0     		b	.L46
 560              	.LVL51:
 561              	.L47:
 137:Src/ds18b20.c ****     dat = (dat) | (j << i);
 562              		.loc 1 137 5 is_stmt 1 discriminator 3 view .LVU113
 137:Src/ds18b20.c ****     dat = (dat) | (j << i);
 563              		.loc 1 137 9 is_stmt 0 discriminator 3 view .LVU114
 564 0008 FFF7FEFF 		bl	DS18B20_ReadBit
 565              	.LVL52:
 138:Src/ds18b20.c ****   }
 566              		.loc 1 138 5 is_stmt 1 discriminator 3 view .LVU115
 138:Src/ds18b20.c ****   }
 567              		.loc 1 138 22 is_stmt 0 discriminator 3 view .LVU116
 568 000c A040     		lsls	r0, r0, r4
 569              	.LVL53:
 138:Src/ds18b20.c ****   }
 570              		.loc 1 138 17 discriminator 3 view .LVU117
 571 000e 0543     		orrs	r5, r5, r0
 572              	.LVL54:
 138:Src/ds18b20.c ****   }
 573              		.loc 1 138 9 discriminator 3 view .LVU118
 574 0010 EDB2     		uxtb	r5, r5
 575              	.LVL55:
 136:Src/ds18b20.c ****     j = DS18B20_ReadBit();
 576              		.loc 1 136 23 discriminator 3 view .LVU119
 577 0012 0134     		adds	r4, r4, #1
 578              	.LVL56:
 136:Src/ds18b20.c ****     j = DS18B20_ReadBit();
 579              		.loc 1 136 23 discriminator 3 view .LVU120
 580 0014 E4B2     		uxtb	r4, r4
 581              	.LVL57:
 582              	.L46:
 136:Src/ds18b20.c ****     j = DS18B20_ReadBit();
 583              		.loc 1 136 3 discriminator 1 view .LVU121
 584 0016 072C     		cmp	r4, #7
 585 0018 F6D9     		bls	.L47
 141:Src/ds18b20.c **** }
 586              		.loc 1 141 3 is_stmt 1 view .LVU122
 142:Src/ds18b20.c **** 
 587              		.loc 1 142 1 is_stmt 0 view .LVU123
 588 001a 2846     		mov	r0, r5
 589 001c 38BD     		pop	{r3, r4, r5, pc}
 142:Src/ds18b20.c **** 
 590              		.loc 1 142 1 view .LVU124
 591              		.cfi_endproc
 592              	.LFE71:
 594              		.section	.text.DS18B20_Init,"ax",%progbits
 595              		.align	1
 596              		.global	DS18B20_Init
 597              		.syntax unified
 598              		.thumb
 599              		.thumb_func
 600              		.fpu softvfp
 602              	DS18B20_Init:
ARM GAS  /tmp/ccSHVwWu.s 			page 16


 603              	.LFB69:
  95:Src/ds18b20.c ****   DS18B20_Mode_OUT_PP();
 604              		.loc 1 95 28 is_stmt 1 view -0
 605              		.cfi_startproc
 606              		@ args = 0, pretend = 0, frame = 0
 607              		@ frame_needed = 0, uses_anonymous_args = 0
 608 0000 08B5     		push	{r3, lr}
 609              	.LCFI13:
 610              		.cfi_def_cfa_offset 8
 611              		.cfi_offset 3, -8
 612              		.cfi_offset 14, -4
  96:Src/ds18b20.c ****   DS18B20_OUT_1;
 613              		.loc 1 96 3 view .LVU126
 614 0002 FFF7FEFF 		bl	DS18B20_Mode_OUT_PP
 615              	.LVL58:
  97:Src/ds18b20.c **** 
 616              		.loc 1 97 3 view .LVU127
 617 0006 0122     		movs	r2, #1
 618 0008 4021     		movs	r1, #64
 619 000a 0448     		ldr	r0, .L51
 620 000c FFF7FEFF 		bl	HAL_GPIO_WritePin
 621              	.LVL59:
  99:Src/ds18b20.c ****   return DS18B20_Presence();
 622              		.loc 1 99 3 view .LVU128
 623 0010 FFF7FEFF 		bl	DS18B20_Reset
 624              	.LVL60:
 100:Src/ds18b20.c **** }
 625              		.loc 1 100 3 view .LVU129
 100:Src/ds18b20.c **** }
 626              		.loc 1 100 10 is_stmt 0 view .LVU130
 627 0014 FFF7FEFF 		bl	DS18B20_Presence
 628              	.LVL61:
 101:Src/ds18b20.c **** 
 629              		.loc 1 101 1 view .LVU131
 630 0018 08BD     		pop	{r3, pc}
 631              	.L52:
 632 001a 00BF     		.align	2
 633              	.L51:
 634 001c 00080140 		.word	1073809408
 635              		.cfi_endproc
 636              	.LFE69:
 638              		.global	__aeabi_i2f
 639              		.global	__aeabi_fmul
 640              		.section	.text.DS18B20_GetTemp_SkipRom,"ax",%progbits
 641              		.align	1
 642              		.global	DS18B20_GetTemp_SkipRom
 643              		.syntax unified
 644              		.thumb
 645              		.thumb_func
 646              		.fpu softvfp
 648              	DS18B20_GetTemp_SkipRom:
 649              	.LFB75:
 198:Src/ds18b20.c **** 
 199:Src/ds18b20.c **** /**
 200:Src/ds18b20.c ****  * Â≠òÂÇ®ÁöÑÊ∏©Â∫¶ÊòØ16 ‰ΩçÁöÑÂ∏¶Á¨¶Âè∑Êâ©Â±ïÁöÑ‰∫åËøõÂà∂Ë°•Á†ÅÂΩ¢Âºè
 201:Src/ds18b20.c ****  * ÂΩìÂ∑•‰ΩúÂú®12‰ΩçÂàÜËæ®ÁéáÊó∂ÔºåÂÖ∂‰∏≠5‰∏™Á¨¶Âè∑‰ΩçÔºå7‰∏™Êï¥Êï∞‰ΩçÔºå4‰∏™Â∞èÊï∞‰Ωç
 202:Src/ds18b20.c ****  *
ARM GAS  /tmp/ccSHVwWu.s 			page 17


 203:Src/ds18b20.c ****  *         |---------Êï¥Êï∞----------|-----Â∞èÊï∞ ÂàÜËæ®Áéá 1/(2^4)=0.0625----|
 204:Src/ds18b20.c ****  * ‰ΩéÂ≠óËäÇ  | 2^3 | 2^2 | 2^1 | 2^0 | 2^(-1) | 2^(-2) | 2^(-3) | 2^(-4) |
 205:Src/ds18b20.c ****  *
 206:Src/ds18b20.c ****  *
 207:Src/ds18b20.c ****  *         |-----Á¨¶Âè∑‰ΩçÔºö0->Ê≠£  1->Ë¥ü-------|-----------Êï¥Êï∞-----------|
 208:Src/ds18b20.c ****  * È´òÂ≠óËäÇ  |  s  |  s  |  s  |  s  |    s   |   2^6  |   2^5  |   2^4  |
 209:Src/ds18b20.c ****  *
 210:Src/ds18b20.c ****  *
 211:Src/ds18b20.c ****  * Ê∏©Â∫¶ = Á¨¶Âè∑‰Ωç + Êï¥Êï∞ + Â∞èÊï∞*0.0625
 212:Src/ds18b20.c ****  */
 213:Src/ds18b20.c **** 
 214:Src/ds18b20.c **** /**
 215:Src/ds18b20.c ****  * @brief  Âú®Ë∑≥ËøáÂåπÈÖç ROM ÊÉÖÂÜµ‰∏ãËé∑Âèñ DS18B20 Ê∏©Â∫¶ÂÄº
 216:Src/ds18b20.c ****  * @param  Êó†
 217:Src/ds18b20.c ****  * @retval Ê∏©Â∫¶ÂÄº
 218:Src/ds18b20.c ****  */
 219:Src/ds18b20.c **** float DS18B20_GetTemp_SkipRom(void) {
 650              		.loc 1 219 37 is_stmt 1 view -0
 651              		.cfi_startproc
 652              		@ args = 0, pretend = 0, frame = 0
 653              		@ frame_needed = 0, uses_anonymous_args = 0
 654 0000 10B5     		push	{r4, lr}
 655              	.LCFI14:
 656              		.cfi_def_cfa_offset 8
 657              		.cfi_offset 4, -8
 658              		.cfi_offset 14, -4
 220:Src/ds18b20.c ****   uint8_t tpmsb, tplsb;
 659              		.loc 1 220 3 view .LVU133
 221:Src/ds18b20.c ****   int16_t s_tem;
 660              		.loc 1 221 3 view .LVU134
 222:Src/ds18b20.c ****   float f_tem;
 661              		.loc 1 222 3 view .LVU135
 223:Src/ds18b20.c **** 
 224:Src/ds18b20.c ****   DS18B20_SkipRom();
 662              		.loc 1 224 3 view .LVU136
 663 0002 FFF7FEFF 		bl	DS18B20_SkipRom
 664              	.LVL62:
 225:Src/ds18b20.c ****   DS18B20_WriteByte(0X44); /* ÂºÄÂßãËΩ¨Êç¢ */
 665              		.loc 1 225 3 view .LVU137
 666 0006 4420     		movs	r0, #68
 667 0008 FFF7FEFF 		bl	DS18B20_WriteByte
 668              	.LVL63:
 226:Src/ds18b20.c **** 
 227:Src/ds18b20.c ****   DS18B20_SkipRom();
 669              		.loc 1 227 3 view .LVU138
 670 000c FFF7FEFF 		bl	DS18B20_SkipRom
 671              	.LVL64:
 228:Src/ds18b20.c ****   DS18B20_WriteByte(0XBE); /* ËØªÊ∏©Â∫¶ÂÄº */
 672              		.loc 1 228 3 view .LVU139
 673 0010 BE20     		movs	r0, #190
 674 0012 FFF7FEFF 		bl	DS18B20_WriteByte
 675              	.LVL65:
 229:Src/ds18b20.c **** 
 230:Src/ds18b20.c ****   tplsb = DS18B20_ReadByte();
 676              		.loc 1 230 3 view .LVU140
 677              		.loc 1 230 11 is_stmt 0 view .LVU141
 678 0016 FFF7FEFF 		bl	DS18B20_ReadByte
ARM GAS  /tmp/ccSHVwWu.s 			page 18


 679              	.LVL66:
 680 001a 0446     		mov	r4, r0
 681              	.LVL67:
 231:Src/ds18b20.c ****   tpmsb = DS18B20_ReadByte();
 682              		.loc 1 231 3 is_stmt 1 view .LVU142
 683              		.loc 1 231 11 is_stmt 0 view .LVU143
 684 001c FFF7FEFF 		bl	DS18B20_ReadByte
 685              	.LVL68:
 232:Src/ds18b20.c **** 
 233:Src/ds18b20.c ****   s_tem = tpmsb << 8;
 686              		.loc 1 233 3 is_stmt 1 view .LVU144
 687              		.loc 1 233 17 is_stmt 0 view .LVU145
 688 0020 0002     		lsls	r0, r0, #8
 689              	.LVL69:
 690              		.loc 1 233 9 view .LVU146
 691 0022 03B2     		sxth	r3, r0
 692              	.LVL70:
 234:Src/ds18b20.c ****   s_tem = s_tem | tplsb;
 693              		.loc 1 234 3 is_stmt 1 view .LVU147
 694              		.loc 1 234 17 is_stmt 0 view .LVU148
 695 0024 20B2     		sxth	r0, r4
 696              	.LVL71:
 235:Src/ds18b20.c **** 
 236:Src/ds18b20.c ****   if (s_tem < 0) /* Ë¥üÊ∏©Â∫¶ */
 697              		.loc 1 236 3 is_stmt 1 view .LVU149
 698              		.loc 1 236 6 is_stmt 0 view .LVU150
 699 0026 1843     		orrs	r0, r0, r3
 700              	.LVL72:
 701              		.loc 1 236 6 view .LVU151
 702 0028 06D4     		bmi	.L57
 237:Src/ds18b20.c ****   {
 238:Src/ds18b20.c ****     f_tem = (~s_tem + 1) * 0.0625f;
 239:Src/ds18b20.c ****   } else {
 240:Src/ds18b20.c ****     f_tem = s_tem * 0.0625f;
 703              		.loc 1 240 5 is_stmt 1 view .LVU152
 704              		.loc 1 240 19 is_stmt 0 view .LVU153
 705 002a FFF7FEFF 		bl	__aeabi_i2f
 706              	.LVL73:
 707              		.loc 1 240 11 view .LVU154
 708 002e 4FF07651 		mov	r1, #1031798784
 709 0032 FFF7FEFF 		bl	__aeabi_fmul
 710              	.LVL74:
 241:Src/ds18b20.c ****   }
 242:Src/ds18b20.c **** 
 243:Src/ds18b20.c ****   return f_tem;
 711              		.loc 1 243 3 is_stmt 1 view .LVU155
 712              	.L53:
 244:Src/ds18b20.c **** }
 713              		.loc 1 244 1 is_stmt 0 view .LVU156
 714 0036 10BD     		pop	{r4, pc}
 715              	.LVL75:
 716              	.L57:
 238:Src/ds18b20.c ****   } else {
 717              		.loc 1 238 5 is_stmt 1 view .LVU157
 238:Src/ds18b20.c ****   } else {
 718              		.loc 1 238 26 is_stmt 0 view .LVU158
 719 0038 4042     		rsbs	r0, r0, #0
ARM GAS  /tmp/ccSHVwWu.s 			page 19


 720              	.LVL76:
 238:Src/ds18b20.c ****   } else {
 721              		.loc 1 238 26 view .LVU159
 722 003a FFF7FEFF 		bl	__aeabi_i2f
 723              	.LVL77:
 238:Src/ds18b20.c ****   } else {
 724              		.loc 1 238 11 view .LVU160
 725 003e 4FF07651 		mov	r1, #1031798784
 726 0042 FFF7FEFF 		bl	__aeabi_fmul
 727              	.LVL78:
 238:Src/ds18b20.c ****   } else {
 728              		.loc 1 238 11 view .LVU161
 729 0046 F6E7     		b	.L53
 730              		.cfi_endproc
 731              	.LFE75:
 733              		.section	.text.DS18B20_ReadId,"ax",%progbits
 734              		.align	1
 735              		.global	DS18B20_ReadId
 736              		.syntax unified
 737              		.thumb
 738              		.thumb_func
 739              		.fpu softvfp
 741              	DS18B20_ReadId:
 742              	.LVL79:
 743              	.LFB76:
 245:Src/ds18b20.c **** 
 246:Src/ds18b20.c **** /**
 247:Src/ds18b20.c ****  * @brief  Âú®ÂåπÈÖç ROM ÊÉÖÂÜµ‰∏ãËé∑Âèñ DS18B20 Ê∏©Â∫¶ÂÄº
 248:Src/ds18b20.c ****  * @param  ds18b20_idÔºöÁî®‰∫éÂ≠òÊîæ DS18B20 Â∫èÂàóÂè∑ÁöÑÊï∞ÁªÑÁöÑÈ¶ñÂú∞ÂùÄ
 249:Src/ds18b20.c ****  */
 250:Src/ds18b20.c **** void DS18B20_ReadId(uint8_t *ds18b20_id) {
 744              		.loc 1 250 42 is_stmt 1 view -0
 745              		.cfi_startproc
 746              		@ args = 0, pretend = 0, frame = 0
 747              		@ frame_needed = 0, uses_anonymous_args = 0
 748              		.loc 1 250 42 is_stmt 0 view .LVU163
 749 0000 38B5     		push	{r3, r4, r5, lr}
 750              	.LCFI15:
 751              		.cfi_def_cfa_offset 16
 752              		.cfi_offset 3, -16
 753              		.cfi_offset 4, -12
 754              		.cfi_offset 5, -8
 755              		.cfi_offset 14, -4
 756 0002 0546     		mov	r5, r0
 251:Src/ds18b20.c ****   uint8_t uc;
 757              		.loc 1 251 3 is_stmt 1 view .LVU164
 252:Src/ds18b20.c **** 
 253:Src/ds18b20.c ****   DS18B20_WriteByte(0x33); //ËØªÂèñÂ∫èÂàóÂè∑
 758              		.loc 1 253 3 view .LVU165
 759 0004 3320     		movs	r0, #51
 760              	.LVL80:
 761              		.loc 1 253 3 is_stmt 0 view .LVU166
 762 0006 FFF7FEFF 		bl	DS18B20_WriteByte
 763              	.LVL81:
 254:Src/ds18b20.c **** 
 255:Src/ds18b20.c ****   for (uc = 0; uc < 8; uc++) {
 764              		.loc 1 255 3 is_stmt 1 view .LVU167
ARM GAS  /tmp/ccSHVwWu.s 			page 20


 765              		.loc 1 255 11 is_stmt 0 view .LVU168
 766 000a 0024     		movs	r4, #0
 767              		.loc 1 255 3 view .LVU169
 768 000c 04E0     		b	.L59
 769              	.LVL82:
 770              	.L60:
 256:Src/ds18b20.c ****     ds18b20_id[uc] = DS18B20_ReadByte();
 771              		.loc 1 256 5 is_stmt 1 discriminator 3 view .LVU170
 772              		.loc 1 256 22 is_stmt 0 discriminator 3 view .LVU171
 773 000e FFF7FEFF 		bl	DS18B20_ReadByte
 774              	.LVL83:
 775              		.loc 1 256 20 discriminator 3 view .LVU172
 776 0012 2855     		strb	r0, [r5, r4]
 255:Src/ds18b20.c ****     ds18b20_id[uc] = DS18B20_ReadByte();
 777              		.loc 1 255 26 discriminator 3 view .LVU173
 778 0014 0134     		adds	r4, r4, #1
 779              	.LVL84:
 255:Src/ds18b20.c ****     ds18b20_id[uc] = DS18B20_ReadByte();
 780              		.loc 1 255 26 discriminator 3 view .LVU174
 781 0016 E4B2     		uxtb	r4, r4
 782              	.LVL85:
 783              	.L59:
 255:Src/ds18b20.c ****     ds18b20_id[uc] = DS18B20_ReadByte();
 784              		.loc 1 255 3 discriminator 1 view .LVU175
 785 0018 072C     		cmp	r4, #7
 786 001a F8D9     		bls	.L60
 257:Src/ds18b20.c ****   }
 258:Src/ds18b20.c **** }
 787              		.loc 1 258 1 view .LVU176
 788 001c 38BD     		pop	{r3, r4, r5, pc}
 789              		.loc 1 258 1 view .LVU177
 790              		.cfi_endproc
 791              	.LFE76:
 793              		.section	.text.DS18B20_GetTemp_MatchRom,"ax",%progbits
 794              		.align	1
 795              		.global	DS18B20_GetTemp_MatchRom
 796              		.syntax unified
 797              		.thumb
 798              		.thumb_func
 799              		.fpu softvfp
 801              	DS18B20_GetTemp_MatchRom:
 802              	.LVL86:
 803              	.LFB77:
 259:Src/ds18b20.c **** 
 260:Src/ds18b20.c **** /**
 261:Src/ds18b20.c ****  * @brief  Âú®ÂåπÈÖç ROM ÊÉÖÂÜµ‰∏ãËé∑Âèñ DS18B20 Ê∏©Â∫¶ÂÄº
 262:Src/ds18b20.c ****  * @param  ds18b20_idÔºöÂ≠òÊîæ DS18B20 Â∫èÂàóÂè∑ÁöÑÊï∞ÁªÑÁöÑÈ¶ñÂú∞ÂùÄ
 263:Src/ds18b20.c ****  * @retval Ê∏©Â∫¶ÂÄº
 264:Src/ds18b20.c ****  */
 265:Src/ds18b20.c **** float DS18B20_GetTemp_MatchRom(uint8_t *ds18b20_id) {
 804              		.loc 1 265 53 is_stmt 1 view -0
 805              		.cfi_startproc
 806              		@ args = 0, pretend = 0, frame = 0
 807              		@ frame_needed = 0, uses_anonymous_args = 0
 808              		.loc 1 265 53 is_stmt 0 view .LVU179
 809 0000 38B5     		push	{r3, r4, r5, lr}
 810              	.LCFI16:
ARM GAS  /tmp/ccSHVwWu.s 			page 21


 811              		.cfi_def_cfa_offset 16
 812              		.cfi_offset 3, -16
 813              		.cfi_offset 4, -12
 814              		.cfi_offset 5, -8
 815              		.cfi_offset 14, -4
 816 0002 0546     		mov	r5, r0
 266:Src/ds18b20.c ****   uint8_t tpmsb, tplsb, i;
 817              		.loc 1 266 3 is_stmt 1 view .LVU180
 267:Src/ds18b20.c ****   int16_t s_tem;
 818              		.loc 1 267 3 view .LVU181
 268:Src/ds18b20.c ****   float f_tem;
 819              		.loc 1 268 3 view .LVU182
 269:Src/ds18b20.c **** 
 270:Src/ds18b20.c ****   DS18B20_MatchRom(); /* ÂåπÈÖçROM */
 820              		.loc 1 270 3 view .LVU183
 821 0004 FFF7FEFF 		bl	DS18B20_MatchRom
 822              	.LVL87:
 271:Src/ds18b20.c **** 
 272:Src/ds18b20.c ****   for (i = 0; i < 8; i++) {
 823              		.loc 1 272 3 view .LVU184
 824              		.loc 1 272 10 is_stmt 0 view .LVU185
 825 0008 0024     		movs	r4, #0
 826              		.loc 1 272 3 view .LVU186
 827 000a 04E0     		b	.L63
 828              	.LVL88:
 829              	.L64:
 273:Src/ds18b20.c ****     DS18B20_WriteByte(ds18b20_id[i]);
 830              		.loc 1 273 5 is_stmt 1 discriminator 3 view .LVU187
 831 000c 285D     		ldrb	r0, [r5, r4]	@ zero_extendqisi2
 832 000e FFF7FEFF 		bl	DS18B20_WriteByte
 833              	.LVL89:
 272:Src/ds18b20.c ****     DS18B20_WriteByte(ds18b20_id[i]);
 834              		.loc 1 272 23 is_stmt 0 discriminator 3 view .LVU188
 835 0012 0134     		adds	r4, r4, #1
 836              	.LVL90:
 272:Src/ds18b20.c ****     DS18B20_WriteByte(ds18b20_id[i]);
 837              		.loc 1 272 23 discriminator 3 view .LVU189
 838 0014 E4B2     		uxtb	r4, r4
 839              	.LVL91:
 840              	.L63:
 272:Src/ds18b20.c ****     DS18B20_WriteByte(ds18b20_id[i]);
 841              		.loc 1 272 3 discriminator 1 view .LVU190
 842 0016 072C     		cmp	r4, #7
 843 0018 F8D9     		bls	.L64
 274:Src/ds18b20.c ****   }
 275:Src/ds18b20.c **** 
 276:Src/ds18b20.c ****   DS18B20_WriteByte(0X44); /* ÂºÄÂßãËΩ¨Êç¢ */
 844              		.loc 1 276 3 is_stmt 1 view .LVU191
 845 001a 4420     		movs	r0, #68
 846 001c FFF7FEFF 		bl	DS18B20_WriteByte
 847              	.LVL92:
 277:Src/ds18b20.c **** 
 278:Src/ds18b20.c ****   DS18B20_MatchRom(); /* ÂåπÈÖçROM */
 848              		.loc 1 278 3 view .LVU192
 849 0020 FFF7FEFF 		bl	DS18B20_MatchRom
 850              	.LVL93:
 279:Src/ds18b20.c **** 
ARM GAS  /tmp/ccSHVwWu.s 			page 22


 280:Src/ds18b20.c ****   for (i = 0; i < 8; i++) {
 851              		.loc 1 280 3 view .LVU193
 852              		.loc 1 280 10 is_stmt 0 view .LVU194
 853 0024 0024     		movs	r4, #0
 854              		.loc 1 280 3 view .LVU195
 855 0026 04E0     		b	.L65
 856              	.LVL94:
 857              	.L66:
 281:Src/ds18b20.c ****     DS18B20_WriteByte(ds18b20_id[i]);
 858              		.loc 1 281 5 is_stmt 1 discriminator 3 view .LVU196
 859 0028 285D     		ldrb	r0, [r5, r4]	@ zero_extendqisi2
 860 002a FFF7FEFF 		bl	DS18B20_WriteByte
 861              	.LVL95:
 280:Src/ds18b20.c ****     DS18B20_WriteByte(ds18b20_id[i]);
 862              		.loc 1 280 23 is_stmt 0 discriminator 3 view .LVU197
 863 002e 0134     		adds	r4, r4, #1
 864              	.LVL96:
 280:Src/ds18b20.c ****     DS18B20_WriteByte(ds18b20_id[i]);
 865              		.loc 1 280 23 discriminator 3 view .LVU198
 866 0030 E4B2     		uxtb	r4, r4
 867              	.LVL97:
 868              	.L65:
 280:Src/ds18b20.c ****     DS18B20_WriteByte(ds18b20_id[i]);
 869              		.loc 1 280 3 discriminator 1 view .LVU199
 870 0032 072C     		cmp	r4, #7
 871 0034 F8D9     		bls	.L66
 282:Src/ds18b20.c ****   }
 283:Src/ds18b20.c **** 
 284:Src/ds18b20.c ****   DS18B20_WriteByte(0XBE); /* ËØªÊ∏©Â∫¶ÂÄº */
 872              		.loc 1 284 3 is_stmt 1 view .LVU200
 873 0036 BE20     		movs	r0, #190
 874 0038 FFF7FEFF 		bl	DS18B20_WriteByte
 875              	.LVL98:
 285:Src/ds18b20.c **** 
 286:Src/ds18b20.c ****   tplsb = DS18B20_ReadByte();
 876              		.loc 1 286 3 view .LVU201
 877              		.loc 1 286 11 is_stmt 0 view .LVU202
 878 003c FFF7FEFF 		bl	DS18B20_ReadByte
 879              	.LVL99:
 880 0040 0446     		mov	r4, r0
 881              	.LVL100:
 287:Src/ds18b20.c ****   tpmsb = DS18B20_ReadByte();
 882              		.loc 1 287 3 is_stmt 1 view .LVU203
 883              		.loc 1 287 11 is_stmt 0 view .LVU204
 884 0042 FFF7FEFF 		bl	DS18B20_ReadByte
 885              	.LVL101:
 288:Src/ds18b20.c **** 
 289:Src/ds18b20.c ****   s_tem = tpmsb << 8;
 886              		.loc 1 289 3 is_stmt 1 view .LVU205
 887              		.loc 1 289 17 is_stmt 0 view .LVU206
 888 0046 0002     		lsls	r0, r0, #8
 889              	.LVL102:
 890              		.loc 1 289 9 view .LVU207
 891 0048 03B2     		sxth	r3, r0
 892              	.LVL103:
 290:Src/ds18b20.c ****   s_tem = s_tem | tplsb;
 893              		.loc 1 290 3 is_stmt 1 view .LVU208
ARM GAS  /tmp/ccSHVwWu.s 			page 23


 894              		.loc 1 290 17 is_stmt 0 view .LVU209
 895 004a 20B2     		sxth	r0, r4
 896              	.LVL104:
 291:Src/ds18b20.c **** 
 292:Src/ds18b20.c ****   if (s_tem < 0) /* Ë¥üÊ∏©Â∫¶ */
 897              		.loc 1 292 3 is_stmt 1 view .LVU210
 898              		.loc 1 292 6 is_stmt 0 view .LVU211
 899 004c 1843     		orrs	r0, r0, r3
 900              	.LVL105:
 901              		.loc 1 292 6 view .LVU212
 902 004e 06D4     		bmi	.L70
 293:Src/ds18b20.c ****   {
 294:Src/ds18b20.c ****     f_tem = (~s_tem + 1) * 0.0625f;
 295:Src/ds18b20.c ****   } else {
 296:Src/ds18b20.c ****     f_tem = s_tem * 0.0625f;
 903              		.loc 1 296 5 is_stmt 1 view .LVU213
 904              		.loc 1 296 19 is_stmt 0 view .LVU214
 905 0050 FFF7FEFF 		bl	__aeabi_i2f
 906              	.LVL106:
 907              		.loc 1 296 11 view .LVU215
 908 0054 4FF07651 		mov	r1, #1031798784
 909 0058 FFF7FEFF 		bl	__aeabi_fmul
 910              	.LVL107:
 297:Src/ds18b20.c ****   }
 298:Src/ds18b20.c **** 
 299:Src/ds18b20.c ****   return f_tem;
 911              		.loc 1 299 3 is_stmt 1 view .LVU216
 912              	.L62:
 300:Src/ds18b20.c **** }
 913              		.loc 1 300 1 is_stmt 0 view .LVU217
 914 005c 38BD     		pop	{r3, r4, r5, pc}
 915              	.LVL108:
 916              	.L70:
 294:Src/ds18b20.c ****   } else {
 917              		.loc 1 294 5 is_stmt 1 view .LVU218
 294:Src/ds18b20.c ****   } else {
 918              		.loc 1 294 26 is_stmt 0 view .LVU219
 919 005e 4042     		rsbs	r0, r0, #0
 920              	.LVL109:
 294:Src/ds18b20.c ****   } else {
 921              		.loc 1 294 26 view .LVU220
 922 0060 FFF7FEFF 		bl	__aeabi_i2f
 923              	.LVL110:
 294:Src/ds18b20.c ****   } else {
 924              		.loc 1 294 11 view .LVU221
 925 0064 4FF07651 		mov	r1, #1031798784
 926 0068 FFF7FEFF 		bl	__aeabi_fmul
 927              	.LVL111:
 294:Src/ds18b20.c ****   } else {
 928              		.loc 1 294 11 view .LVU222
 929 006c F6E7     		b	.L62
 930              		.cfi_endproc
 931              	.LFE77:
 933              		.text
 934              	.Letext0:
 935              		.file 2 "/usr/local/gcc-arm-none-eabi-8-2019-q3-update/arm-none-eabi/include/machine/_default_type
 936              		.file 3 "/usr/local/gcc-arm-none-eabi-8-2019-q3-update/arm-none-eabi/include/sys/_stdint.h"
ARM GAS  /tmp/ccSHVwWu.s 			page 24


 937              		.file 4 "Drivers/CMSIS/Include/core_cm3.h"
 938              		.file 5 "Drivers/CMSIS/Device/ST/STM32F1xx/Include/system_stm32f1xx.h"
 939              		.file 6 "Drivers/CMSIS/Device/ST/STM32F1xx/Include/stm32f103xb.h"
 940              		.file 7 "Drivers/STM32F1xx_HAL_Driver/Inc/stm32f1xx_hal_gpio.h"
 941              		.file 8 "Drivers/STM32F1xx_HAL_Driver/Inc/stm32f1xx_hal.h"
ARM GAS  /tmp/ccSHVwWu.s 			page 25


DEFINED SYMBOLS
                            *ABS*:0000000000000000 ds18b20.c
     /tmp/ccSHVwWu.s:16     .text.DS18B20_Mode_OUT_PP:0000000000000000 $t
     /tmp/ccSHVwWu.s:23     .text.DS18B20_Mode_OUT_PP:0000000000000000 DS18B20_Mode_OUT_PP
     /tmp/ccSHVwWu.s:64     .text.DS18B20_Mode_OUT_PP:0000000000000020 $d
     /tmp/ccSHVwWu.s:69     .text.DS18B20_Mode_IN_NP:0000000000000000 $t
     /tmp/ccSHVwWu.s:75     .text.DS18B20_Mode_IN_NP:0000000000000000 DS18B20_Mode_IN_NP
     /tmp/ccSHVwWu.s:114    .text.DS18B20_Mode_IN_NP:000000000000001c $d
     /tmp/ccSHVwWu.s:119    .text.DS18B20_Reset:0000000000000000 $t
     /tmp/ccSHVwWu.s:125    .text.DS18B20_Reset:0000000000000000 DS18B20_Reset
     /tmp/ccSHVwWu.s:165    .text.DS18B20_Reset:000000000000002c $d
     /tmp/ccSHVwWu.s:170    .text.DS18B20_WriteByte:0000000000000000 $t
     /tmp/ccSHVwWu.s:176    .text.DS18B20_WriteByte:0000000000000000 DS18B20_WriteByte
     /tmp/ccSHVwWu.s:281    .text.DS18B20_WriteByte:0000000000000068 $d
     /tmp/ccSHVwWu.s:286    .text.DS18B20_Presence:0000000000000000 $t
     /tmp/ccSHVwWu.s:292    .text.DS18B20_Presence:0000000000000000 DS18B20_Presence
     /tmp/ccSHVwWu.s:394    .text.DS18B20_Presence:0000000000000054 $d
     /tmp/ccSHVwWu.s:399    .text.DS18B20_SkipRom:0000000000000000 $t
     /tmp/ccSHVwWu.s:405    .text.DS18B20_SkipRom:0000000000000000 DS18B20_SkipRom
     /tmp/ccSHVwWu.s:432    .text.DS18B20_MatchRom:0000000000000000 $t
     /tmp/ccSHVwWu.s:438    .text.DS18B20_MatchRom:0000000000000000 DS18B20_MatchRom
     /tmp/ccSHVwWu.s:465    .text.DS18B20_ReadBit:0000000000000000 $t
     /tmp/ccSHVwWu.s:471    .text.DS18B20_ReadBit:0000000000000000 DS18B20_ReadBit
     /tmp/ccSHVwWu.s:527    .text.DS18B20_ReadBit:0000000000000038 $d
     /tmp/ccSHVwWu.s:532    .text.DS18B20_ReadByte:0000000000000000 $t
     /tmp/ccSHVwWu.s:538    .text.DS18B20_ReadByte:0000000000000000 DS18B20_ReadByte
     /tmp/ccSHVwWu.s:595    .text.DS18B20_Init:0000000000000000 $t
     /tmp/ccSHVwWu.s:602    .text.DS18B20_Init:0000000000000000 DS18B20_Init
     /tmp/ccSHVwWu.s:634    .text.DS18B20_Init:000000000000001c $d
     /tmp/ccSHVwWu.s:641    .text.DS18B20_GetTemp_SkipRom:0000000000000000 $t
     /tmp/ccSHVwWu.s:648    .text.DS18B20_GetTemp_SkipRom:0000000000000000 DS18B20_GetTemp_SkipRom
     /tmp/ccSHVwWu.s:734    .text.DS18B20_ReadId:0000000000000000 $t
     /tmp/ccSHVwWu.s:741    .text.DS18B20_ReadId:0000000000000000 DS18B20_ReadId
     /tmp/ccSHVwWu.s:794    .text.DS18B20_GetTemp_MatchRom:0000000000000000 $t
     /tmp/ccSHVwWu.s:801    .text.DS18B20_GetTemp_MatchRom:0000000000000000 DS18B20_GetTemp_MatchRom

UNDEFINED SYMBOLS
HAL_GPIO_Init
HAL_GPIO_WritePin
bsp_delay_us
HAL_GPIO_ReadPin
__aeabi_i2f
__aeabi_fmul
