ARM GAS  /tmp/ccEYx3bh.s 			page 1


   1              		.cpu cortex-m3
   2              		.eabi_attribute 20, 1
   3              		.eabi_attribute 21, 1
   4              		.eabi_attribute 23, 3
   5              		.eabi_attribute 24, 1
   6              		.eabi_attribute 25, 1
   7              		.eabi_attribute 26, 1
   8              		.eabi_attribute 30, 1
   9              		.eabi_attribute 34, 1
  10              		.eabi_attribute 18, 4
  11              		.file	"main.c"
  12              		.text
  13              	.Ltext0:
  14              		.cfi_sections	.debug_frame
  15              		.section	.text._write,"ax",%progbits
  16              		.align	1
  17              		.global	_write
  18              		.arch armv7-m
  19              		.syntax unified
  20              		.thumb
  21              		.thumb_func
  22              		.fpu softvfp
  24              	_write:
  25              	.LVL0:
  26              	.LFB68:
  27              		.file 1 "Src/main.c"
   1:Src/main.c    **** /* USER CODE BEGIN Header */
   2:Src/main.c    **** /**
   3:Src/main.c    ****  ******************************************************************************
   4:Src/main.c    ****  * @file           : main.c
   5:Src/main.c    ****  * @brief          : Main program body
   6:Src/main.c    ****  ******************************************************************************
   7:Src/main.c    ****  * @attention
   8:Src/main.c    ****  *
   9:Src/main.c    ****  * <h2><center>&copy; Copyright (c) 2021 STMicroelectronics.
  10:Src/main.c    ****  * All rights reserved.</center></h2>
  11:Src/main.c    ****  *
  12:Src/main.c    ****  * This software component is licensed by ST under BSD 3-Clause license,
  13:Src/main.c    ****  * the "License"; You may not use this file except in compliance with the
  14:Src/main.c    ****  * License. You may obtain a copy of the License at:
  15:Src/main.c    ****  *                        opensource.org/licenses/BSD-3-Clause
  16:Src/main.c    ****  *
  17:Src/main.c    ****  ******************************************************************************
  18:Src/main.c    ****  */
  19:Src/main.c    **** /* USER CODE END Header */
  20:Src/main.c    **** /* Includes ------------------------------------------------------------------*/
  21:Src/main.c    **** #include "main.h"
  22:Src/main.c    **** #include "adc.h"
  23:Src/main.c    **** #include "dma.h"
  24:Src/main.c    **** #include "tim.h"
  25:Src/main.c    **** #include "usart.h"
  26:Src/main.c    **** #include "gpio.h"
  27:Src/main.c    **** 
  28:Src/main.c    **** /* Private includes ----------------------------------------------------------*/
  29:Src/main.c    **** /* USER CODE BEGIN Includes */
  30:Src/main.c    **** #include "core.h"
  31:Src/main.c    **** static volatile int test = 0;
ARM GAS  /tmp/ccEYx3bh.s 			page 2


  32:Src/main.c    **** /* USER CODE END Includes */
  33:Src/main.c    **** 
  34:Src/main.c    **** /* Private typedef -----------------------------------------------------------*/
  35:Src/main.c    **** /* USER CODE BEGIN PTD */
  36:Src/main.c    **** 
  37:Src/main.c    **** /* USER CODE END PTD */
  38:Src/main.c    **** 
  39:Src/main.c    **** /* Private define ------------------------------------------------------------*/
  40:Src/main.c    **** /* USER CODE BEGIN PD */
  41:Src/main.c    **** /* USER CODE END PD */
  42:Src/main.c    **** 
  43:Src/main.c    **** /* Private macro -------------------------------------------------------------*/
  44:Src/main.c    **** /* USER CODE BEGIN PM */
  45:Src/main.c    **** 
  46:Src/main.c    **** /* USER CODE END PM */
  47:Src/main.c    **** 
  48:Src/main.c    **** /* Private variables ---------------------------------------------------------*/
  49:Src/main.c    **** 
  50:Src/main.c    **** /* USER CODE BEGIN PV */
  51:Src/main.c    **** 
  52:Src/main.c    **** /* USER CODE END PV */
  53:Src/main.c    **** 
  54:Src/main.c    **** /* Private function prototypes -----------------------------------------------*/
  55:Src/main.c    **** void SystemClock_Config(void);
  56:Src/main.c    **** /* USER CODE BEGIN PFP */
  57:Src/main.c    **** int _write(int fd, char *ptr, int len) {
  28              		.loc 1 57 40 view -0
  29              		.cfi_startproc
  30              		@ args = 0, pretend = 0, frame = 0
  31              		@ frame_needed = 0, uses_anonymous_args = 0
  32              		.loc 1 57 40 is_stmt 0 view .LVU1
  33 0000 10B5     		push	{r4, lr}
  34              	.LCFI0:
  35              		.cfi_def_cfa_offset 8
  36              		.cfi_offset 4, -8
  37              		.cfi_offset 14, -4
  38 0002 1446     		mov	r4, r2
  58:Src/main.c    ****   HAL_UART_Transmit(&huart1, (uint8_t *)ptr, len, 0xFFFF);
  39              		.loc 1 58 3 is_stmt 1 view .LVU2
  40 0004 4FF6FF73 		movw	r3, #65535
  41 0008 92B2     		uxth	r2, r2
  42              	.LVL1:
  43              		.loc 1 58 3 is_stmt 0 view .LVU3
  44 000a 0248     		ldr	r0, .L3
  45              	.LVL2:
  46              		.loc 1 58 3 view .LVU4
  47 000c FFF7FEFF 		bl	HAL_UART_Transmit
  48              	.LVL3:
  59:Src/main.c    ****   return len;
  49              		.loc 1 59 3 is_stmt 1 view .LVU5
  60:Src/main.c    **** }
  50              		.loc 1 60 1 is_stmt 0 view .LVU6
  51 0010 2046     		mov	r0, r4
  52 0012 10BD     		pop	{r4, pc}
  53              	.LVL4:
  54              	.L4:
  55              		.loc 1 60 1 view .LVU7
ARM GAS  /tmp/ccEYx3bh.s 			page 3


  56              		.align	2
  57              	.L3:
  58 0014 00000000 		.word	huart1
  59              		.cfi_endproc
  60              	.LFE68:
  62              		.section	.text.SystemClock_Config,"ax",%progbits
  63              		.align	1
  64              		.global	SystemClock_Config
  65              		.syntax unified
  66              		.thumb
  67              		.thumb_func
  68              		.fpu softvfp
  70              	SystemClock_Config:
  71              	.LFB70:
  61:Src/main.c    **** /* USER CODE END PFP */
  62:Src/main.c    **** 
  63:Src/main.c    **** /* Private user code ---------------------------------------------------------*/
  64:Src/main.c    **** /* USER CODE BEGIN 0 */
  65:Src/main.c    **** 
  66:Src/main.c    **** /* USER CODE END 0 */
  67:Src/main.c    **** 
  68:Src/main.c    **** /**
  69:Src/main.c    ****   * @brief  The application entry point.
  70:Src/main.c    ****   * @retval int
  71:Src/main.c    ****   */
  72:Src/main.c    **** int main(void)
  73:Src/main.c    **** {
  74:Src/main.c    ****   /* USER CODE BEGIN 1 */
  75:Src/main.c    **** 
  76:Src/main.c    ****   /* USER CODE END 1 */
  77:Src/main.c    **** 
  78:Src/main.c    ****   /* MCU Configuration--------------------------------------------------------*/
  79:Src/main.c    **** 
  80:Src/main.c    ****   /* Reset of all peripherals, Initializes the Flash interface and the Systick. */
  81:Src/main.c    ****   HAL_Init();
  82:Src/main.c    **** 
  83:Src/main.c    ****   /* USER CODE BEGIN Init */
  84:Src/main.c    **** 
  85:Src/main.c    ****   /* USER CODE END Init */
  86:Src/main.c    **** 
  87:Src/main.c    ****   /* Configure the system clock */
  88:Src/main.c    ****   SystemClock_Config();
  89:Src/main.c    **** 
  90:Src/main.c    ****   /* USER CODE BEGIN SysInit */
  91:Src/main.c    **** 
  92:Src/main.c    ****   /* USER CODE END SysInit */
  93:Src/main.c    **** 
  94:Src/main.c    ****   /* Initialize all configured peripherals */
  95:Src/main.c    ****   MX_GPIO_Init();
  96:Src/main.c    ****   MX_DMA_Init();
  97:Src/main.c    ****   MX_USART1_UART_Init();
  98:Src/main.c    ****   MX_TIM1_Init();
  99:Src/main.c    ****   MX_TIM2_Init();
 100:Src/main.c    ****   MX_TIM3_Init();
 101:Src/main.c    ****   MX_ADC1_Init();
 102:Src/main.c    ****   MX_TIM4_Init();
 103:Src/main.c    ****   /* USER CODE BEGIN 2 */
ARM GAS  /tmp/ccEYx3bh.s 			page 4


 104:Src/main.c    ****   while (!init_system())
 105:Src/main.c    ****     ;
 106:Src/main.c    ****   /* USER CODE END 2 */
 107:Src/main.c    **** 
 108:Src/main.c    ****   /* Infinite loop */
 109:Src/main.c    ****   /* USER CODE BEGIN WHILE */
 110:Src/main.c    ****   int counter = 0;
 111:Src/main.c    ****   while (1) {
 112:Src/main.c    ****     /* USER CODE END WHILE */
 113:Src/main.c    **** 
 114:Src/main.c    ****     /* USER CODE BEGIN 3 */
 115:Src/main.c    ****     HAL_Delay(1000);
 116:Src/main.c    **** 
 117:Src/main.c    ****     update_info();
 118:Src/main.c    **** 
 119:Src/main.c    ****     if(state.mode == TIME_MODE)
 120:Src/main.c    ****       timeCheck();
 121:Src/main.c    ****     else if(state.mode == TEMP_MODE)
 122:Src/main.c    ****       tempCheck();
 123:Src/main.c    ****     // if(state.mode != ONOFF_MODE)
 124:Src/main.c    ****     //   validCheck();
 125:Src/main.c    **** 
 126:Src/main.c    ****     if (counter >= 15) {
 127:Src/main.c    ****       send_state();
 128:Src/main.c    ****       counter = 0;
 129:Src/main.c    ****     } else {
 130:Src/main.c    ****       counter++;
 131:Src/main.c    ****     }
 132:Src/main.c    **** 
 133:Src/main.c    ****     // if(state.mode == TEMP_MODE) tempCheck();
 134:Src/main.c    ****     // else if(state.mode == TIME_MODE) timeCheck();
 135:Src/main.c    ****   }
 136:Src/main.c    ****   /* USER CODE END 3 */
 137:Src/main.c    **** }
 138:Src/main.c    **** 
 139:Src/main.c    **** /**
 140:Src/main.c    ****   * @brief System Clock Configuration
 141:Src/main.c    ****   * @retval None
 142:Src/main.c    ****   */
 143:Src/main.c    **** void SystemClock_Config(void)
 144:Src/main.c    **** {
  72              		.loc 1 144 1 is_stmt 1 view -0
  73              		.cfi_startproc
  74              		@ args = 0, pretend = 0, frame = 80
  75              		@ frame_needed = 0, uses_anonymous_args = 0
  76 0000 30B5     		push	{r4, r5, lr}
  77              	.LCFI1:
  78              		.cfi_def_cfa_offset 12
  79              		.cfi_offset 4, -12
  80              		.cfi_offset 5, -8
  81              		.cfi_offset 14, -4
  82 0002 95B0     		sub	sp, sp, #84
  83              	.LCFI2:
  84              		.cfi_def_cfa_offset 96
 145:Src/main.c    ****   RCC_OscInitTypeDef RCC_OscInitStruct = {0};
  85              		.loc 1 145 3 view .LVU9
  86              		.loc 1 145 22 is_stmt 0 view .LVU10
ARM GAS  /tmp/ccEYx3bh.s 			page 5


  87 0004 2022     		movs	r2, #32
  88 0006 0021     		movs	r1, #0
  89 0008 0CA8     		add	r0, sp, #48
  90 000a FFF7FEFF 		bl	memset
  91              	.LVL5:
 146:Src/main.c    ****   RCC_ClkInitTypeDef RCC_ClkInitStruct = {0};
  92              		.loc 1 146 3 is_stmt 1 view .LVU11
  93              		.loc 1 146 22 is_stmt 0 view .LVU12
  94 000e 0024     		movs	r4, #0
  95 0010 0594     		str	r4, [sp, #20]
  96 0012 0694     		str	r4, [sp, #24]
  97 0014 0794     		str	r4, [sp, #28]
  98 0016 0894     		str	r4, [sp, #32]
  99 0018 0994     		str	r4, [sp, #36]
 147:Src/main.c    ****   RCC_PeriphCLKInitTypeDef PeriphClkInit = {0};
 100              		.loc 1 147 3 is_stmt 1 view .LVU13
 101              		.loc 1 147 28 is_stmt 0 view .LVU14
 102 001a 0194     		str	r4, [sp, #4]
 103 001c 0294     		str	r4, [sp, #8]
 104 001e 0394     		str	r4, [sp, #12]
 105 0020 0494     		str	r4, [sp, #16]
 148:Src/main.c    **** 
 149:Src/main.c    ****   /** Initializes the RCC Oscillators according to the specified parameters
 150:Src/main.c    ****   * in the RCC_OscInitTypeDef structure.
 151:Src/main.c    ****   */
 152:Src/main.c    ****   RCC_OscInitStruct.OscillatorType = RCC_OSCILLATORTYPE_HSE;
 106              		.loc 1 152 3 is_stmt 1 view .LVU15
 107              		.loc 1 152 36 is_stmt 0 view .LVU16
 108 0022 0122     		movs	r2, #1
 109 0024 0A92     		str	r2, [sp, #40]
 153:Src/main.c    ****   RCC_OscInitStruct.HSEState = RCC_HSE_ON;
 110              		.loc 1 153 3 is_stmt 1 view .LVU17
 111              		.loc 1 153 30 is_stmt 0 view .LVU18
 112 0026 4FF48033 		mov	r3, #65536
 113 002a 0B93     		str	r3, [sp, #44]
 154:Src/main.c    ****   RCC_OscInitStruct.HSEPredivValue = RCC_HSE_PREDIV_DIV1;
 114              		.loc 1 154 3 is_stmt 1 view .LVU19
 155:Src/main.c    ****   RCC_OscInitStruct.HSIState = RCC_HSI_ON;
 115              		.loc 1 155 3 view .LVU20
 116              		.loc 1 155 30 is_stmt 0 view .LVU21
 117 002c 0E92     		str	r2, [sp, #56]
 156:Src/main.c    ****   RCC_OscInitStruct.PLL.PLLState = RCC_PLL_ON;
 118              		.loc 1 156 3 is_stmt 1 view .LVU22
 119              		.loc 1 156 34 is_stmt 0 view .LVU23
 120 002e 0225     		movs	r5, #2
 121 0030 1195     		str	r5, [sp, #68]
 157:Src/main.c    ****   RCC_OscInitStruct.PLL.PLLSource = RCC_PLLSOURCE_HSE;
 122              		.loc 1 157 3 is_stmt 1 view .LVU24
 123              		.loc 1 157 35 is_stmt 0 view .LVU25
 124 0032 1293     		str	r3, [sp, #72]
 158:Src/main.c    ****   RCC_OscInitStruct.PLL.PLLMUL = RCC_PLL_MUL2;
 125              		.loc 1 158 3 is_stmt 1 view .LVU26
 159:Src/main.c    ****   if (HAL_RCC_OscConfig(&RCC_OscInitStruct) != HAL_OK)
 126              		.loc 1 159 3 view .LVU27
 127              		.loc 1 159 7 is_stmt 0 view .LVU28
 128 0034 0AA8     		add	r0, sp, #40
 129 0036 FFF7FEFF 		bl	HAL_RCC_OscConfig
ARM GAS  /tmp/ccEYx3bh.s 			page 6


 130              	.LVL6:
 160:Src/main.c    ****   {
 161:Src/main.c    ****     Error_Handler();
 162:Src/main.c    ****   }
 163:Src/main.c    ****   /** Initializes the CPU, AHB and APB buses clocks
 164:Src/main.c    ****   */
 165:Src/main.c    ****   RCC_ClkInitStruct.ClockType = RCC_CLOCKTYPE_HCLK|RCC_CLOCKTYPE_SYSCLK
 131              		.loc 1 165 3 is_stmt 1 view .LVU29
 132              		.loc 1 165 31 is_stmt 0 view .LVU30
 133 003a 0F23     		movs	r3, #15
 134 003c 0593     		str	r3, [sp, #20]
 166:Src/main.c    ****                               |RCC_CLOCKTYPE_PCLK1|RCC_CLOCKTYPE_PCLK2;
 167:Src/main.c    ****   RCC_ClkInitStruct.SYSCLKSource = RCC_SYSCLKSOURCE_PLLCLK;
 135              		.loc 1 167 3 is_stmt 1 view .LVU31
 136              		.loc 1 167 34 is_stmt 0 view .LVU32
 137 003e 0695     		str	r5, [sp, #24]
 168:Src/main.c    ****   RCC_ClkInitStruct.AHBCLKDivider = RCC_SYSCLK_DIV1;
 138              		.loc 1 168 3 is_stmt 1 view .LVU33
 139              		.loc 1 168 35 is_stmt 0 view .LVU34
 140 0040 0794     		str	r4, [sp, #28]
 169:Src/main.c    ****   RCC_ClkInitStruct.APB1CLKDivider = RCC_HCLK_DIV1;
 141              		.loc 1 169 3 is_stmt 1 view .LVU35
 142              		.loc 1 169 36 is_stmt 0 view .LVU36
 143 0042 0894     		str	r4, [sp, #32]
 170:Src/main.c    ****   RCC_ClkInitStruct.APB2CLKDivider = RCC_HCLK_DIV1;
 144              		.loc 1 170 3 is_stmt 1 view .LVU37
 145              		.loc 1 170 36 is_stmt 0 view .LVU38
 146 0044 0994     		str	r4, [sp, #36]
 171:Src/main.c    **** 
 172:Src/main.c    ****   if (HAL_RCC_ClockConfig(&RCC_ClkInitStruct, FLASH_LATENCY_0) != HAL_OK)
 147              		.loc 1 172 3 is_stmt 1 view .LVU39
 148              		.loc 1 172 7 is_stmt 0 view .LVU40
 149 0046 2146     		mov	r1, r4
 150 0048 05A8     		add	r0, sp, #20
 151 004a FFF7FEFF 		bl	HAL_RCC_ClockConfig
 152              	.LVL7:
 173:Src/main.c    ****   {
 174:Src/main.c    ****     Error_Handler();
 175:Src/main.c    ****   }
 176:Src/main.c    ****   PeriphClkInit.PeriphClockSelection = RCC_PERIPHCLK_ADC;
 153              		.loc 1 176 3 is_stmt 1 view .LVU41
 154              		.loc 1 176 38 is_stmt 0 view .LVU42
 155 004e 0195     		str	r5, [sp, #4]
 177:Src/main.c    ****   PeriphClkInit.AdcClockSelection = RCC_ADCPCLK2_DIV2;
 156              		.loc 1 177 3 is_stmt 1 view .LVU43
 157              		.loc 1 177 35 is_stmt 0 view .LVU44
 158 0050 0394     		str	r4, [sp, #12]
 178:Src/main.c    ****   if (HAL_RCCEx_PeriphCLKConfig(&PeriphClkInit) != HAL_OK)
 159              		.loc 1 178 3 is_stmt 1 view .LVU45
 160              		.loc 1 178 7 is_stmt 0 view .LVU46
 161 0052 01A8     		add	r0, sp, #4
 162 0054 FFF7FEFF 		bl	HAL_RCCEx_PeriphCLKConfig
 163              	.LVL8:
 179:Src/main.c    ****   {
 180:Src/main.c    ****     Error_Handler();
 181:Src/main.c    ****   }
 182:Src/main.c    **** }
ARM GAS  /tmp/ccEYx3bh.s 			page 7


 164              		.loc 1 182 1 view .LVU47
 165 0058 15B0     		add	sp, sp, #84
 166              	.LCFI3:
 167              		.cfi_def_cfa_offset 12
 168              		@ sp needed
 169 005a 30BD     		pop	{r4, r5, pc}
 170              		.cfi_endproc
 171              	.LFE70:
 173              		.section	.text.main,"ax",%progbits
 174              		.align	1
 175              		.global	main
 176              		.syntax unified
 177              		.thumb
 178              		.thumb_func
 179              		.fpu softvfp
 181              	main:
 182              	.LFB69:
  73:Src/main.c    ****   /* USER CODE BEGIN 1 */
 183              		.loc 1 73 1 is_stmt 1 view -0
 184              		.cfi_startproc
 185              		@ args = 0, pretend = 0, frame = 0
 186              		@ frame_needed = 0, uses_anonymous_args = 0
 187 0000 10B5     		push	{r4, lr}
 188              	.LCFI4:
 189              		.cfi_def_cfa_offset 8
 190              		.cfi_offset 4, -8
 191              		.cfi_offset 14, -4
  81:Src/main.c    **** 
 192              		.loc 1 81 3 view .LVU49
 193 0002 FFF7FEFF 		bl	HAL_Init
 194              	.LVL9:
  88:Src/main.c    **** 
 195              		.loc 1 88 3 view .LVU50
 196 0006 FFF7FEFF 		bl	SystemClock_Config
 197              	.LVL10:
  95:Src/main.c    ****   MX_DMA_Init();
 198              		.loc 1 95 3 view .LVU51
 199 000a FFF7FEFF 		bl	MX_GPIO_Init
 200              	.LVL11:
  96:Src/main.c    ****   MX_USART1_UART_Init();
 201              		.loc 1 96 3 view .LVU52
 202 000e FFF7FEFF 		bl	MX_DMA_Init
 203              	.LVL12:
  97:Src/main.c    ****   MX_TIM1_Init();
 204              		.loc 1 97 3 view .LVU53
 205 0012 FFF7FEFF 		bl	MX_USART1_UART_Init
 206              	.LVL13:
  98:Src/main.c    ****   MX_TIM2_Init();
 207              		.loc 1 98 3 view .LVU54
 208 0016 FFF7FEFF 		bl	MX_TIM1_Init
 209              	.LVL14:
  99:Src/main.c    ****   MX_TIM3_Init();
 210              		.loc 1 99 3 view .LVU55
 211 001a FFF7FEFF 		bl	MX_TIM2_Init
 212              	.LVL15:
 100:Src/main.c    ****   MX_ADC1_Init();
 213              		.loc 1 100 3 view .LVU56
ARM GAS  /tmp/ccEYx3bh.s 			page 8


 214 001e FFF7FEFF 		bl	MX_TIM3_Init
 215              	.LVL16:
 101:Src/main.c    ****   MX_TIM4_Init();
 216              		.loc 1 101 3 view .LVU57
 217 0022 FFF7FEFF 		bl	MX_ADC1_Init
 218              	.LVL17:
 102:Src/main.c    ****   /* USER CODE BEGIN 2 */
 219              		.loc 1 102 3 view .LVU58
 220 0026 FFF7FEFF 		bl	MX_TIM4_Init
 221              	.LVL18:
 104:Src/main.c    ****     ;
 222              		.loc 1 104 3 view .LVU59
 223              	.L8:
 105:Src/main.c    ****   /* USER CODE END 2 */
 224              		.loc 1 105 5 discriminator 1 view .LVU60
 104:Src/main.c    ****     ;
 225              		.loc 1 104 11 is_stmt 0 discriminator 1 view .LVU61
 226 002a FFF7FEFF 		bl	init_system
 227              	.LVL19:
 104:Src/main.c    ****     ;
 228              		.loc 1 104 9 discriminator 1 view .LVU62
 229 002e 0028     		cmp	r0, #0
 230 0030 FBD0     		beq	.L8
 110:Src/main.c    ****   while (1) {
 231              		.loc 1 110 7 view .LVU63
 232 0032 0024     		movs	r4, #0
 233 0034 06E0     		b	.L9
 234              	.LVL20:
 235              	.L15:
 120:Src/main.c    ****     else if(state.mode == TEMP_MODE)
 236              		.loc 1 120 7 is_stmt 1 view .LVU64
 237 0036 FFF7FEFF 		bl	timeCheck
 238              	.LVL21:
 239 003a 0FE0     		b	.L11
 240              	.L16:
 122:Src/main.c    ****     // if(state.mode != ONOFF_MODE)
 241              		.loc 1 122 7 view .LVU65
 242 003c FFF7FEFF 		bl	tempCheck
 243              	.LVL22:
 244 0040 0CE0     		b	.L11
 245              	.L12:
 130:Src/main.c    ****     }
 246              		.loc 1 130 7 view .LVU66
 130:Src/main.c    ****     }
 247              		.loc 1 130 14 is_stmt 0 view .LVU67
 248 0042 0134     		adds	r4, r4, #1
 249              	.LVL23:
 250              	.L9:
 111:Src/main.c    ****     /* USER CODE END WHILE */
 251              		.loc 1 111 3 is_stmt 1 view .LVU68
 115:Src/main.c    **** 
 252              		.loc 1 115 5 view .LVU69
 253 0044 4FF47A70 		mov	r0, #1000
 254 0048 FFF7FEFF 		bl	HAL_Delay
 255              	.LVL24:
 117:Src/main.c    **** 
 256              		.loc 1 117 5 view .LVU70
ARM GAS  /tmp/ccEYx3bh.s 			page 9


 257 004c FFF7FEFF 		bl	update_info
 258              	.LVL25:
 119:Src/main.c    ****       timeCheck();
 259              		.loc 1 119 5 view .LVU71
 119:Src/main.c    ****       timeCheck();
 260              		.loc 1 119 13 is_stmt 0 view .LVU72
 261 0050 054B     		ldr	r3, .L17
 262 0052 1B79     		ldrb	r3, [r3, #4]	@ zero_extendqisi2
 119:Src/main.c    ****       timeCheck();
 263              		.loc 1 119 7 view .LVU73
 264 0054 012B     		cmp	r3, #1
 265 0056 EED0     		beq	.L15
 121:Src/main.c    ****       tempCheck();
 266              		.loc 1 121 10 is_stmt 1 view .LVU74
 121:Src/main.c    ****       tempCheck();
 267              		.loc 1 121 12 is_stmt 0 view .LVU75
 268 0058 022B     		cmp	r3, #2
 269 005a EFD0     		beq	.L16
 270              	.L11:
 126:Src/main.c    ****       send_state();
 271              		.loc 1 126 5 is_stmt 1 view .LVU76
 126:Src/main.c    ****       send_state();
 272              		.loc 1 126 8 is_stmt 0 view .LVU77
 273 005c 0E2C     		cmp	r4, #14
 274 005e F0DD     		ble	.L12
 127:Src/main.c    ****       counter = 0;
 275              		.loc 1 127 7 is_stmt 1 view .LVU78
 276 0060 FFF7FEFF 		bl	send_state
 277              	.LVL26:
 128:Src/main.c    ****     } else {
 278              		.loc 1 128 7 view .LVU79
 128:Src/main.c    ****     } else {
 279              		.loc 1 128 15 is_stmt 0 view .LVU80
 280 0064 0024     		movs	r4, #0
 281 0066 EDE7     		b	.L9
 282              	.L18:
 283              		.align	2
 284              	.L17:
 285 0068 00000000 		.word	state
 286              		.cfi_endproc
 287              	.LFE69:
 289              		.section	.text.HAL_UART_RxCpltCallback,"ax",%progbits
 290              		.align	1
 291              		.global	HAL_UART_RxCpltCallback
 292              		.syntax unified
 293              		.thumb
 294              		.thumb_func
 295              		.fpu softvfp
 297              	HAL_UART_RxCpltCallback:
 298              	.LVL27:
 299              	.LFB71:
 183:Src/main.c    **** 
 184:Src/main.c    **** /* USER CODE BEGIN 4 */
 185:Src/main.c    **** // void HAL_ADC_ConvCpltCallback(ADC_HandleTypeDef *hadc) {
 186:Src/main.c    **** //   temp = adc_buf *
 187:Src/main.c    **** //          0.322; // convert value from adc buffer to temperature in Centigrade
 188:Src/main.c    **** //   HAL_ADC_Start_IT(&hadc1);
ARM GAS  /tmp/ccEYx3bh.s 			page 10


 189:Src/main.c    **** // }
 190:Src/main.c    **** // void HAL_GPIO_EXTI_Callback(uint16_t GPIO_Pin)
 191:Src/main.c    **** // {
 192:Src/main.c    **** //   if(GPIO_Pin == MAIN_SWITCH_Pin)
 193:Src/main.c    **** //   {
 194:Src/main.c    **** //     HAL_Delay(20);
 195:Src/main.c    **** //     if(HAL_GPIO_ReadPin(MAIN_SWITCH_GPIO_Port, MAIN_SWITCH_Pin) ==
 196:Src/main.c    **** //     GPIO_PIN_SET)
 197:Src/main.c    **** //     {
 198:Src/main.c    **** //       HAL_GPIO_TogglePin(LED_ON_BOARD_GPIO_Port, LED_ON_BOARD_Pin);
 199:Src/main.c    **** //     }
 200:Src/main.c    **** 
 201:Src/main.c    **** //     if(HAL_GPIO_ReadPin(MAIN_SWITCH_GPIO_Port, MAIN_SWITCH_Pin) ==
 202:Src/main.c    **** //     GPIO_PIN_RESET)
 203:Src/main.c    **** //     {
 204:Src/main.c    **** //       HAL_GPIO_TogglePin(LED_ON_BOARD_GPIO_Port, LED_ON_BOARD_Pin);
 205:Src/main.c    **** //     }
 206:Src/main.c    **** //   }
 207:Src/main.c    **** // }
 208:Src/main.c    **** 
 209:Src/main.c    **** void HAL_UART_RxCpltCallback(UART_HandleTypeDef *huart) {
 300              		.loc 1 209 57 is_stmt 1 view -0
 301              		.cfi_startproc
 302              		@ args = 0, pretend = 0, frame = 0
 303              		@ frame_needed = 0, uses_anonymous_args = 0
 304              		.loc 1 209 57 is_stmt 0 view .LVU82
 305 0000 08B5     		push	{r3, lr}
 306              	.LCFI5:
 307              		.cfi_def_cfa_offset 8
 308              		.cfi_offset 3, -8
 309              		.cfi_offset 14, -4
 210:Src/main.c    ****   /* Prevent unused argument(s) compilation warning */
 211:Src/main.c    ****   UNUSED(huart);
 310              		.loc 1 211 3 is_stmt 1 view .LVU83
 212:Src/main.c    ****   /* NOTE: This function Should not be modified, when the callback is needed,
 213:Src/main.c    ****            the HAL_UART_TxCpltCallback could be implemented in the user file
 214:Src/main.c    ****    */
 215:Src/main.c    **** 
 216:Src/main.c    ****   if (Uart1_Rx_Cnt >= 511) //溢出判断
 311              		.loc 1 216 3 view .LVU84
 217:Src/main.c    ****   {
 218:Src/main.c    ****     Uart1_Rx_Cnt = 0;
 219:Src/main.c    ****     memset(RxBuffer, 0x00, sizeof(RxBuffer));
 220:Src/main.c    ****     HAL_UART_Transmit(&huart1, (uint8_t *)"OVERFLOW", 8, 0xFFFF);
 221:Src/main.c    **** 
 222:Src/main.c    ****   } else {
 223:Src/main.c    ****     RxBuffer[Uart1_Rx_Cnt++] = aRxBuffer; //接收数据转存
 312              		.loc 1 223 5 view .LVU85
 313              		.loc 1 223 26 is_stmt 0 view .LVU86
 314 0002 064A     		ldr	r2, .L21
 315 0004 1378     		ldrb	r3, [r2]	@ zero_extendqisi2
 316 0006 591C     		adds	r1, r3, #1
 317 0008 1170     		strb	r1, [r2]
 318              		.loc 1 223 30 view .LVU87
 319 000a 0549     		ldr	r1, .L21+4
 320 000c 0878     		ldrb	r0, [r1]	@ zero_extendqisi2
 321              	.LVL28:
ARM GAS  /tmp/ccEYx3bh.s 			page 11


 322              		.loc 1 223 30 view .LVU88
 323 000e 054A     		ldr	r2, .L21+8
 324 0010 D054     		strb	r0, [r2, r3]
 224:Src/main.c    ****   }
 225:Src/main.c    **** 
 226:Src/main.c    ****   HAL_UART_Receive_IT(&huart1, (uint8_t *)&aRxBuffer, 1); //再开启接收中断
 325              		.loc 1 226 3 is_stmt 1 view .LVU89
 326 0012 0122     		movs	r2, #1
 327 0014 0448     		ldr	r0, .L21+12
 328 0016 FFF7FEFF 		bl	HAL_UART_Receive_IT
 329              	.LVL29:
 227:Src/main.c    **** }
 330              		.loc 1 227 1 is_stmt 0 view .LVU90
 331 001a 08BD     		pop	{r3, pc}
 332              	.L22:
 333              		.align	2
 334              	.L21:
 335 001c 00000000 		.word	Uart1_Rx_Cnt
 336 0020 00000000 		.word	aRxBuffer
 337 0024 00000000 		.word	RxBuffer
 338 0028 00000000 		.word	huart1
 339              		.cfi_endproc
 340              	.LFE71:
 342              		.section	.text.Error_Handler,"ax",%progbits
 343              		.align	1
 344              		.global	Error_Handler
 345              		.syntax unified
 346              		.thumb
 347              		.thumb_func
 348              		.fpu softvfp
 350              	Error_Handler:
 351              	.LFB72:
 228:Src/main.c    **** 
 229:Src/main.c    **** // #ifdef __GNUC__
 230:Src/main.c    **** // #define PUTCHAR_PROTOTYPE int __io_putchar(int ch)
 231:Src/main.c    **** // #else
 232:Src/main.c    **** // #define PUTCHAR_PROTOTYPE int fputc(int ch, FILE *f)
 233:Src/main.c    **** // #endif
 234:Src/main.c    **** // PUTCHAR_PROTOTYPE
 235:Src/main.c    **** // {
 236:Src/main.c    **** //     //具体哪个串口可以更改USART1为其它串口
 237:Src/main.c    **** //     while ((USART1->SR & 0X40) == 0); //循环发送,直到发送完毕
 238:Src/main.c    **** //     USART1->DR = (uint8_t) ch;
 239:Src/main.c    **** //     return ch;
 240:Src/main.c    **** // }
 241:Src/main.c    **** 
 242:Src/main.c    **** /* USER CODE END 4 */
 243:Src/main.c    **** 
 244:Src/main.c    **** /**
 245:Src/main.c    ****   * @brief  This function is executed in case of error occurrence.
 246:Src/main.c    ****   * @retval None
 247:Src/main.c    ****   */
 248:Src/main.c    **** void Error_Handler(void)
 249:Src/main.c    **** {
 352              		.loc 1 249 1 is_stmt 1 view -0
 353              		.cfi_startproc
 354              		@ args = 0, pretend = 0, frame = 0
ARM GAS  /tmp/ccEYx3bh.s 			page 12


 355              		@ frame_needed = 0, uses_anonymous_args = 0
 356              		@ link register save eliminated.
 250:Src/main.c    ****   /* USER CODE BEGIN Error_Handler_Debug */
 251:Src/main.c    ****   /* User can add his own implementation to report the HAL error return state */
 252:Src/main.c    **** 
 253:Src/main.c    ****   /* USER CODE END Error_Handler_Debug */
 254:Src/main.c    **** }
 357              		.loc 1 254 1 view .LVU92
 358 0000 7047     		bx	lr
 359              		.cfi_endproc
 360              	.LFE72:
 362              		.section	.bss.test,"aw",%nobits
 363              		.align	2
 366              	test:
 367 0000 00000000 		.space	4
 368              		.text
 369              	.Letext0:
 370              		.file 2 "/usr/local/gcc-arm-none-eabi-8-2019-q3-update/arm-none-eabi/include/machine/_default_type
 371              		.file 3 "/usr/local/gcc-arm-none-eabi-8-2019-q3-update/arm-none-eabi/include/sys/_stdint.h"
 372              		.file 4 "Drivers/CMSIS/Include/core_cm3.h"
 373              		.file 5 "Drivers/CMSIS/Device/ST/STM32F1xx/Include/system_stm32f1xx.h"
 374              		.file 6 "Drivers/CMSIS/Device/ST/STM32F1xx/Include/stm32f103xb.h"
 375              		.file 7 "Drivers/CMSIS/Device/ST/STM32F1xx/Include/stm32f1xx.h"
 376              		.file 8 "Drivers/STM32F1xx_HAL_Driver/Inc/stm32f1xx_hal_def.h"
 377              		.file 9 "Drivers/STM32F1xx_HAL_Driver/Inc/stm32f1xx_hal_rcc.h"
 378              		.file 10 "Drivers/STM32F1xx_HAL_Driver/Inc/stm32f1xx_hal_rcc_ex.h"
 379              		.file 11 "Drivers/STM32F1xx_HAL_Driver/Inc/stm32f1xx_hal_dma.h"
 380              		.file 12 "Drivers/STM32F1xx_HAL_Driver/Inc/stm32f1xx_hal_adc.h"
 381              		.file 13 "Drivers/STM32F1xx_HAL_Driver/Inc/stm32f1xx_hal_tim.h"
 382              		.file 14 "Drivers/STM32F1xx_HAL_Driver/Inc/stm32f1xx_hal_uart.h"
 383              		.file 15 "Drivers/STM32F1xx_HAL_Driver/Inc/stm32f1xx_hal.h"
 384              		.file 16 "/usr/local/gcc-arm-none-eabi-8-2019-q3-update/lib/gcc/arm-none-eabi/8.3.1/include/stddef
 385              		.file 17 "/usr/local/gcc-arm-none-eabi-8-2019-q3-update/arm-none-eabi/include/sys/_types.h"
 386              		.file 18 "/usr/local/gcc-arm-none-eabi-8-2019-q3-update/arm-none-eabi/include/sys/reent.h"
 387              		.file 19 "/usr/local/gcc-arm-none-eabi-8-2019-q3-update/arm-none-eabi/include/sys/lock.h"
 388              		.file 20 "Inc/adc.h"
 389              		.file 21 "Inc/tim.h"
 390              		.file 22 "Inc/usart.h"
 391              		.file 23 "Inc/core.h"
 392              		.file 24 "Inc/gpio.h"
 393              		.file 25 "Inc/dma.h"
 394              		.file 26 "<built-in>"
ARM GAS  /tmp/ccEYx3bh.s 			page 13

